Certificate:
    Data:
        Version: 3 (0x2)
        Serial Number:
            37:23:7b:1b:2b:18:2f:34:6b:7e:62:b8:79:46:fc:fc:bc:ef:1f:8d
        Signature Algorithm: sha256WithRSAEncryption
        Issuer: C=AU, L=Brisbane, O=CryptSoft Pty Ltd, CN=Eric Young, emailAddress=eay@mincom.oz.au
        Validity
            Not Before: Mar 25 14:30:43 2025 GMT
            Not After : Mar 25 14:30:43 2025 GMT
        Subject: C=AU, L=Brisbane, O=CryptSoft Pty Ltd, CN=Eric Young, emailAddress=eay@mincom.oz.au
        Subject Public Key Info:
            Public Key Algorithm: rsaEncryption
                Public-Key: (512 bit)
                Modulus:
                    00:aa:db:7a:a9:2e:46:4f:15:71:19:96:16:6b:4f:
                    f8:bb:e2:30:1d:fe:e9:d8:b3:59:6d:c3:c1:a7:df:
                    ce:7c:87:18:01:70:50:9f:c8:4e:fd:17:b5:bb:02:
                    ca:5d:d0:a3:22:86:86:b3:80:cb:74:6f:3c:ae:4c:
                    df:c8:ae:5d:3d
                Exponent: 65537 (0x10001)
        X509v3 extensions:
            X509v3 Subject Key Identifier: 
                FE:FF:49:4F:D8:25:BD:1D:98:7D:E4:B1:9C:02:91:F6:0D:9F:D6:C9
    Signature Algorithm: sha256WithRSAEncryption
    Signature Value:
        79:b2:7b:33:bf:ff:ad:9d:67:30:93:15:d8:ea:a3:a0:d0:b4:
        6b:c7:58:08:f8:3e:a7:e0:3f:b2:0d:51:d1:8b:ac:ba:e3:57:
        0b:ce:77:09:0c:98:be:62:ff:a7:f5:a8:8a:f2:a6:6b:bf:b4:
        d8:94:15:6a:d2:b8:59:f6:ac:1f
-----BEGIN CERTIFICATE-----
MIICCTCCAbOgAwIBAgIUNyN7GysYLzRrfmK4eUb8/LzvH40wDQYJKoZIhvcNAQEL
BQAwcjELMAkGA1UEBhMCQVUxETAPBgNVBAcMCEJyaXNiYW5lMRowGAYDVQQKDBFD
cnlwdFNvZnQgUHR5IEx0ZDETMBEGA1UEAwwKRXJpYyBZb3VuZzEfMB0GCSqGSIb3
DQEJARYQZWF5QG1pbmNvbS5vei5hdTAeFw0yNTAzMjUxNDMwNDNaFw0yNTAzMjUx
NDMwNDNaMHIxCzAJBgNVBAYTAkFVMREwDwYDVQQHDAhCcmlzYmFuZTEaMBgGA1UE
CgwRQ3J5cHRTb2Z0IFB0eSBMdGQxEzARBgNVBAMMCkVyaWMgWW91bmcxHzAdBgkq
hkiG9w0BCQEWEGVheUBtaW5jb20ub3ouYXUwXDANBgkqhkiG9w0BAQEFAANLADBI
AkEAqtt6qS5GTxVxGZYWa0/4u+IwHf7p2LNZbcPBp9/OfIcYAXBQn8hO/Re1uwLK
XdCjIoaGs4DLdG88rkzfyK5dPQIDAQABoyEwHzAdBgNVHQ4EFgQU/v9JT9glvR2Y
feSxnAKR9g2f1skwDQYJKoZIhvcNAQELBQADQQB5snszv/+tnWcwkxXY6qOg0LRr
x1gI+D6n4D+yDVHRi6y641cLzncJDJi+Yv+n9aiK8qZrv7TYlBVq0rhZ9qwf
-----END CERTIFICATE-----
