Certificate:
    Data:
        Version: 3 (0x2)
        Serial Number:
            2f:be:97:f0:74:ab:90:3e:fb:98:84:60:2d:82:2a:47:5d:3b:9d:bb
        Signature Algorithm: sha256WithRSAEncryption
        Issuer: C=AU, L=Brisbane, O=CryptSoft Pty Ltd, CN=Eric Young, emailAddress=eay@mincom.oz.au
        Validity
            Not Before: Apr  7 13:18:24 2025 GMT
            Not After : Apr  7 13:18:24 2025 GMT
        Subject: C=AU, L=Brisbane, O=CryptSoft Pty Ltd, CN=Eric Young, emailAddress=eay@mincom.oz.au
        Subject Public Key Info:
            Public Key Algorithm: rsaEncryption
                Public-Key: (512 bit)
                Modulus:
                    00:aa:db:7a:a9:2e:46:4f:15:71:19:96:16:6b:4f:
                    f8:bb:e2:30:1d:fe:e9:d8:b3:59:6d:c3:c1:a7:df:
                    ce:7c:87:18:01:70:50:9f:c8:4e:fd:17:b5:bb:02:
                    ca:5d:d0:a3:22:86:86:b3:80:cb:74:6f:3c:ae:4c:
                    df:c8:ae:5d:3d
                Exponent: 65537 (0x10001)
        X509v3 extensions:
            X509v3 Subject Key Identifier: 
                FE:FF:49:4F:D8:25:BD:1D:98:7D:E4:B1:9C:02:91:F6:0D:9F:D6:C9
    Signature Algorithm: sha256WithRSAEncryption
    Signature Value:
        65:05:a2:55:67:0a:f9:fd:0e:56:1b:de:41:24:dd:a3:87:15:
        bf:45:72:5c:0e:44:e7:9e:c6:aa:e4:5f:14:79:6a:19:f8:df:
        ad:25:50:9d:7f:f3:f9:8c:ed:81:de:da:6f:7c:90:cb:06:45:
        6b:09:71:99:43:35:3e:d6:97:2a
-----BEGIN CERTIFICATE-----
MIICCTCCAbOgAwIBAgIUL76X8HSrkD77mIRgLYIqR107nbswDQYJKoZIhvcNAQEL
BQAwcjELMAkGA1UEBhMCQVUxETAPBgNVBAcMCEJyaXNiYW5lMRowGAYDVQQKDBFD
cnlwdFNvZnQgUHR5IEx0ZDETMBEGA1UEAwwKRXJpYyBZb3VuZzEfMB0GCSqGSIb3
DQEJARYQZWF5QG1pbmNvbS5vei5hdTAeFw0yNTA0MDcxMzE4MjRaFw0yNTA0MDcx
MzE4MjRaMHIxCzAJBgNVBAYTAkFVMREwDwYDVQQHDAhCcmlzYmFuZTEaMBgGA1UE
CgwRQ3J5cHRTb2Z0IFB0eSBMdGQxEzARBgNVBAMMCkVyaWMgWW91bmcxHzAdBgkq
hkiG9w0BCQEWEGVheUBtaW5jb20ub3ouYXUwXDANBgkqhkiG9w0BAQEFAANLADBI
AkEAqtt6qS5GTxVxGZYWa0/4u+IwHf7p2LNZbcPBp9/OfIcYAXBQn8hO/Re1uwLK
XdCjIoaGs4DLdG88rkzfyK5dPQIDAQABoyEwHzAdBgNVHQ4EFgQU/v9JT9glvR2Y
feSxnAKR9g2f1skwDQYJKoZIhvcNAQELBQADQQBlBaJVZwr5/Q5WG95BJN2jhxW/
RXJcDkTnnsaq5F8UeWoZ+N+tJVCdf/P5jO2B3tpvfJDLBkVrCXGZQzU+1pcq
-----END CERTIFICATE-----
