Certificate:
    Data:
        Version: 3 (0x2)
        Serial Number:
            2c:7e:f2:b5:22:7c:49:b6:1f:80:91:93:ee:a0:ad:2f:52:df:bb:64
        Signature Algorithm: sha1WithRSAEncryption
        Issuer: C=AU, O=Dodgy Brothers, CN=Dodgy CA
        Validity
            Not Before: Mar 25 14:33:13 2025 GMT
            Not After : Mar 25 14:33:13 2026 GMT
        Subject: C=AU, O=Dodgy Brothers, CN=Brother 1, CN=both_utctime
        Subject Public Key Info:
            Public Key Algorithm: rsaEncryption
                Public-Key: (2048 bit)
                Modulus:
                    00:be:95:86:fa:71:4c:6a:ea:51:98:50:4b:99:a1:
                    2c:66:15:f3:60:f3:e1:ff:69:fb:ce:48:01:1d:fe:
                    e1:2c:38:b0:e3:bd:8f:4b:48:a7:7e:3a:c6:73:e3:
                    ab:bf:e1:da:6e:96:f5:fe:c3:e4:b4:a8:ad:bc:56:
                    34:d4:96:25:74:27:c3:10:db:35:10:25:1c:8e:4b:
                    81:9b:fb:42:04:7c:6f:3d:e2:38:6c:0e:e4:2e:8e:
                    2a:18:6d:30:cd:67:2a:23:6b:37:cf:05:9f:cc:b7:
                    59:58:7f:ba:c4:0a:3f:8c:a4:ad:cb:98:9c:c0:f2:
                    8f:69:67:0f:c1:4e:33:cf:fc:85:5e:bb:5e:cf:93:
                    b0:cf:d9:f4:52:79:87:b1:f8:4d:15:68:65:d5:b7:
                    19:08:63:7f:5e:b1:34:ad:05:8f:5a:f0:e4:e1:8f:
                    25:f2:5c:5c:61:95:b0:56:2d:31:2b:08:65:79:e5:
                    b1:3b:9d:3e:b9:52:4b:ac:5d:c4:58:66:85:8d:81:
                    b3:04:28:f4:3f:2f:ac:92:01:62:d5:fd:8e:0b:da:
                    02:0c:7a:c7:6e:09:1c:ac:1c:b2:4c:d7:54:b8:26:
                    33:b2:5f:14:f3:b1:f9:3d:62:4d:40:99:6b:b6:e7:
                    89:58:97:d6:d4:4d:ea:4b:68:52:f3:3c:a8:b1:35:
                    88:db
                Exponent: 65537 (0x10001)
        X509v3 extensions:
            X509v3 Subject Key Identifier: 
                A1:DF:33:C3:CF:3E:53:41:A7:68:44:CC:AA:19:E1:84:C9:0D:BC:C6
            X509v3 Authority Key Identifier: 
                keyid:B4:11:33:F1:D7:E2:5E:F7:53:9E:20:22:10:4F:86:06:BF:1F:C9:5E
                DirName:/C=AU/O=Dodgy Brothers/CN=Dodgy CA
                serial:54:D6:A7:3A:34:4E:FC:1C:8D:DD:9D:49:EA:D1:43:49:32:07:25:F9
            X509v3 Basic Constraints: critical
                CA:TRUE, pathlen:1
            X509v3 Key Usage: 
                Certificate Sign, CRL Sign
            X509v3 Issuer Alternative Name: 
                <EMPTY>

    Signature Algorithm: sha1WithRSAEncryption
    Signature Value:
        48:d6:f0:bb:5e:32:f5:22:44:55:e0:8b:20:2a:62:11:42:cc:
        c6:ef:cf:a2:8d:a2:b9:46:59:33:95:f4:a2:97:a9:f1:3f:2f:
        94:23:c6:f6:6e:c2:00:6f:c2:02:7c:60:c8:df:b1:8a:d0:8a:
        a9:27:0f:e1:e0:66:e8:53:1b:75:94:58:59:34:14:44:b7:da:
        8c:32:94:41:a4:22:65:cc:98:76:b7:f7:2a:b7:34:fc:a6:d0:
        b3:99:11:c6:89:11:0f:22:37:b8:fc:be:eb:f2:f1:f7:6a:51:
        07:78:f7:d5:45:3e:93:80:1b:b6:02:f1:0c:24:67:71:cb:3b:
        6f:f6:11:b4:31:3e:19:9a:40:b0:6e:05:d6:a5:e6:3f:32:c4:
        3e:b9:91:28:0e:c6:d7:d8:b1:57:d6:1f:34:48:ee:c6:f0:a0:
        c6:79:54:8e:2a:ef:fa:3a:9a:3a:4e:2e:44:74:84:f9:97:ba:
        df:32:be:eb:c8:f6:ba:25:38:45:4b:f2:9a:ce:cc:4c:28:39:
        89:53:07:11:23:ae:cb:5d:d1:76:4b:78:ce:41:94:89:85:8b:
        36:9d:9a:54:50:cf:ea:f0:0b:a7:7d:4a:a3:51:9d:0a:6c:3e:
        f7:12:2f:bf:64:e2:c3:af:53:da:9e:ae:0a:b9:b5:bf:e1:4e:
        2f:ef:ad:3e
-----BEGIN CERTIFICATE-----
MIID3TCCAsWgAwIBAgIULH7ytSJ8SbYfgJGT7qCtL1Lfu2QwDQYJKoZIhvcNAQEF
BQAwOTELMAkGA1UEBhMCQVUxFzAVBgNVBAoMDkRvZGd5IEJyb3RoZXJzMREwDwYD
VQQDDAhEb2RneSBDQTAeFw0yNTAzMjUxNDMzMTNaFw0yNjAzMjUxNDMzMTNaMFEx
CzAJBgNVBAYTAkFVMRcwFQYDVQQKDA5Eb2RneSBCcm90aGVyczESMBAGA1UEAwwJ
QnJvdGhlciAxMRUwEwYDVQQDDAxib3RoX3V0Y3RpbWUwggEiMA0GCSqGSIb3DQEB
AQUAA4IBDwAwggEKAoIBAQC+lYb6cUxq6lGYUEuZoSxmFfNg8+H/afvOSAEd/uEs
OLDjvY9LSKd+OsZz46u/4dpulvX+w+S0qK28VjTUliV0J8MQ2zUQJRyOS4Gb+0IE
fG894jhsDuQujioYbTDNZyojazfPBZ/Mt1lYf7rECj+MpK3LmJzA8o9pZw/BTjPP
/IVeu17Pk7DP2fRSeYex+E0VaGXVtxkIY39esTStBY9a8OThjyXyXFxhlbBWLTEr
CGV55bE7nT65UkusXcRYZoWNgbMEKPQ/L6ySAWLV/Y4L2gIMesduCRysHLJM11S4
JjOyXxTzsfk9Yk1AmWu254lYl9bUTepLaFLzPKixNYjbAgMBAAGjgcQwgcEwHQYD
VR0OBBYEFKHfM8PPPlNBp2hEzKoZ4YTJDbzGMHQGA1UdIwRtMGuAFLQRM/HX4l73
U54gIhBPhga/H8leoT2kOzA5MQswCQYDVQQGEwJBVTEXMBUGA1UECgwORG9kZ3kg
QnJvdGhlcnMxETAPBgNVBAMMCERvZGd5IENBghRU1qc6NE78HI3dnUnq0UNJMgcl
+TASBgNVHRMBAf8ECDAGAQH/AgEBMAsGA1UdDwQEAwIBBjAJBgNVHRIEAjAAMA0G
CSqGSIb3DQEBBQUAA4IBAQBI1vC7XjL1IkRV4IsgKmIRQszG78+ijaK5RlkzlfSi
l6nxPy+UI8b2bsIAb8ICfGDI37GK0IqpJw/h4GboUxt1lFhZNBREt9qMMpRBpCJl
zJh2t/cqtzT8ptCzmRHGiREPIje4/L7r8vH3alEHePfVRT6TgBu2AvEMJGdxyztv
9hG0MT4ZmkCwbgXWpeY/MsQ+uZEoDsbX2LFX1h80SO7G8KDGeVSOKu/6Opo6Ti5E
dIT5l7rfMr7ryPa6JThFS/KazsxMKDmJUwcRI67LXdF2S3jOQZSJhYs2nZpUUM/q
8AunfUqjUZ0KbD73Ei+/ZOLDr1Panq4KubW/4U4v760+
-----END CERTIFICATE-----
