Certificate:
    Data:
        Version: 3 (0x2)
        Serial Number:
            2c:7e:f2:b5:22:7c:49:b6:1f:80:91:93:ee:a0:ad:2f:52:df:bb:60
        Signature Algorithm: sha1WithRSAEncryption
        Issuer: C=AU, O=Dodgy Brothers, CN=Dodgy CA
        Validity
            Not Before: Mar 25 14:33:13 2025 GMT
            Not After : Mar 25 14:33:13 2026 GMT
        Subject: C=AU, O=Dodgy Brothers, CN=Brother 1, CN=lastupdate_generalizedtime
        Subject Public Key Info:
            Public Key Algorithm: rsaEncryption
                Public-Key: (2048 bit)
                Modulus:
                    00:be:95:86:fa:71:4c:6a:ea:51:98:50:4b:99:a1:
                    2c:66:15:f3:60:f3:e1:ff:69:fb:ce:48:01:1d:fe:
                    e1:2c:38:b0:e3:bd:8f:4b:48:a7:7e:3a:c6:73:e3:
                    ab:bf:e1:da:6e:96:f5:fe:c3:e4:b4:a8:ad:bc:56:
                    34:d4:96:25:74:27:c3:10:db:35:10:25:1c:8e:4b:
                    81:9b:fb:42:04:7c:6f:3d:e2:38:6c:0e:e4:2e:8e:
                    2a:18:6d:30:cd:67:2a:23:6b:37:cf:05:9f:cc:b7:
                    59:58:7f:ba:c4:0a:3f:8c:a4:ad:cb:98:9c:c0:f2:
                    8f:69:67:0f:c1:4e:33:cf:fc:85:5e:bb:5e:cf:93:
                    b0:cf:d9:f4:52:79:87:b1:f8:4d:15:68:65:d5:b7:
                    19:08:63:7f:5e:b1:34:ad:05:8f:5a:f0:e4:e1:8f:
                    25:f2:5c:5c:61:95:b0:56:2d:31:2b:08:65:79:e5:
                    b1:3b:9d:3e:b9:52:4b:ac:5d:c4:58:66:85:8d:81:
                    b3:04:28:f4:3f:2f:ac:92:01:62:d5:fd:8e:0b:da:
                    02:0c:7a:c7:6e:09:1c:ac:1c:b2:4c:d7:54:b8:26:
                    33:b2:5f:14:f3:b1:f9:3d:62:4d:40:99:6b:b6:e7:
                    89:58:97:d6:d4:4d:ea:4b:68:52:f3:3c:a8:b1:35:
                    88:db
                Exponent: 65537 (0x10001)
        X509v3 extensions:
            X509v3 Subject Key Identifier: 
                A1:DF:33:C3:CF:3E:53:41:A7:68:44:CC:AA:19:E1:84:C9:0D:BC:C6
            X509v3 Authority Key Identifier: 
                keyid:B4:11:33:F1:D7:E2:5E:F7:53:9E:20:22:10:4F:86:06:BF:1F:C9:5E
                DirName:/C=AU/O=Dodgy Brothers/CN=Dodgy CA
                serial:54:D6:A7:3A:34:4E:FC:1C:8D:DD:9D:49:EA:D1:43:49:32:07:25:F9
            X509v3 Basic Constraints: critical
                CA:TRUE, pathlen:1
            X509v3 Key Usage: 
                Certificate Sign, CRL Sign
            X509v3 Issuer Alternative Name: 
                <EMPTY>

    Signature Algorithm: sha1WithRSAEncryption
    Signature Value:
        5e:03:0b:8f:a1:82:5b:9c:9f:45:37:20:7b:7c:fa:ae:41:3a:
        f6:6b:b6:92:a1:a3:40:66:db:59:dd:3c:40:2f:a7:91:63:31:
        62:44:50:52:3d:e1:79:c7:e7:df:47:78:83:de:6f:94:8e:f0:
        aa:d1:e5:4c:9a:06:13:af:5d:c8:92:ce:66:3a:79:d6:6b:61:
        1d:8d:1a:1a:f7:d8:d2:c9:1d:dd:fd:06:78:54:19:76:57:80:
        46:f9:c9:58:ff:39:de:be:fb:b5:3d:53:ec:81:42:0d:bb:ac:
        42:08:70:55:26:86:b7:0b:10:d9:9a:cc:4a:61:fb:dd:6e:7d:
        de:24:6c:03:93:e9:1c:e3:b8:b3:13:27:3c:60:76:e5:37:c9:
        83:36:96:97:25:e0:11:5e:7b:de:d5:3e:86:47:cd:f8:37:e4:
        ef:1b:1d:06:0f:a8:5f:bb:c3:f9:ff:8d:11:89:bf:de:67:b8:
        84:f2:d0:b0:89:52:6b:40:97:6d:e8:06:d8:55:43:0c:c3:91:
        28:08:76:66:1a:76:63:52:29:d2:5d:f4:93:16:c1:18:a0:d7:
        62:dd:2d:23:0f:c3:a6:59:77:48:28:56:e6:6a:be:60:1b:38:
        2a:fe:8e:de:2d:34:9a:4f:1e:6c:4b:8d:13:55:36:eb:ed:3e:
        60:a1:e5:4c
-----BEGIN CERTIFICATE-----
MIID6zCCAtOgAwIBAgIULH7ytSJ8SbYfgJGT7qCtL1Lfu2AwDQYJKoZIhvcNAQEF
BQAwOTELMAkGA1UEBhMCQVUxFzAVBgNVBAoMDkRvZGd5IEJyb3RoZXJzMREwDwYD
VQQDDAhEb2RneSBDQTAeFw0yNTAzMjUxNDMzMTNaFw0yNjAzMjUxNDMzMTNaMF8x
CzAJBgNVBAYTAkFVMRcwFQYDVQQKDA5Eb2RneSBCcm90aGVyczESMBAGA1UEAwwJ
QnJvdGhlciAxMSMwIQYDVQQDDBpsYXN0dXBkYXRlX2dlbmVyYWxpemVkdGltZTCC
ASIwDQYJKoZIhvcNAQEBBQADggEPADCCAQoCggEBAL6VhvpxTGrqUZhQS5mhLGYV
82Dz4f9p+85IAR3+4Sw4sOO9j0tIp346xnPjq7/h2m6W9f7D5LSorbxWNNSWJXQn
wxDbNRAlHI5LgZv7QgR8bz3iOGwO5C6OKhhtMM1nKiNrN88Fn8y3WVh/usQKP4yk
rcuYnMDyj2lnD8FOM8/8hV67Xs+TsM/Z9FJ5h7H4TRVoZdW3GQhjf16xNK0Fj1rw
5OGPJfJcXGGVsFYtMSsIZXnlsTudPrlSS6xdxFhmhY2BswQo9D8vrJIBYtX9jgva
Agx6x24JHKwcskzXVLgmM7JfFPOx+T1iTUCZa7bniViX1tRN6ktoUvM8qLE1iNsC
AwEAAaOBxDCBwTAdBgNVHQ4EFgQUod8zw88+U0GnaETMqhnhhMkNvMYwdAYDVR0j
BG0wa4AUtBEz8dfiXvdTniAiEE+GBr8fyV6hPaQ7MDkxCzAJBgNVBAYTAkFVMRcw
FQYDVQQKDA5Eb2RneSBCcm90aGVyczERMA8GA1UEAwwIRG9kZ3kgQ0GCFFTWpzo0
Tvwcjd2dSerRQ0kyByX5MBIGA1UdEwEB/wQIMAYBAf8CAQEwCwYDVR0PBAQDAgEG
MAkGA1UdEgQCMAAwDQYJKoZIhvcNAQEFBQADggEBAF4DC4+hglucn0U3IHt8+q5B
OvZrtpKho0Bm21ndPEAvp5FjMWJEUFI94XnH599HeIPeb5SO8KrR5UyaBhOvXciS
zmY6edZrYR2NGhr32NLJHd39BnhUGXZXgEb5yVj/Od6++7U9U+yBQg27rEIIcFUm
hrcLENmazEph+91ufd4kbAOT6RzjuLMTJzxgduU3yYM2lpcl4BFee97VPoZHzfg3
5O8bHQYPqF+7w/n/jRGJv95nuITy0LCJUmtAl23oBthVQwzDkSgIdmYadmNSKdJd
9JMWwRig12LdLSMPw6ZZd0goVuZqvmAbOCr+jt4tNJpPHmxLjRNVNuvtPmCh5Uw=
-----END CERTIFICATE-----
