Certificate:
    Data:
        Version: 3 (0x2)
        Serial Number:
            2c:7e:f2:b5:22:7c:49:b6:1f:80:91:93:ee:a0:ad:2f:52:df:bb:61
        Signature Algorithm: sha1WithRSAEncryption
        Issuer: C=AU, O=Dodgy Brothers, CN=Dodgy CA
        Validity
            Not Before: Mar 25 14:33:13 2025 GMT
            Not After : Mar 25 14:33:13 2026 GMT
        Subject: C=AU, O=Dodgy Brothers, CN=Brother 1, CN=nextupdate_invalid
        Subject Public Key Info:
            Public Key Algorithm: rsaEncryption
                Public-Key: (2048 bit)
                Modulus:
                    00:be:95:86:fa:71:4c:6a:ea:51:98:50:4b:99:a1:
                    2c:66:15:f3:60:f3:e1:ff:69:fb:ce:48:01:1d:fe:
                    e1:2c:38:b0:e3:bd:8f:4b:48:a7:7e:3a:c6:73:e3:
                    ab:bf:e1:da:6e:96:f5:fe:c3:e4:b4:a8:ad:bc:56:
                    34:d4:96:25:74:27:c3:10:db:35:10:25:1c:8e:4b:
                    81:9b:fb:42:04:7c:6f:3d:e2:38:6c:0e:e4:2e:8e:
                    2a:18:6d:30:cd:67:2a:23:6b:37:cf:05:9f:cc:b7:
                    59:58:7f:ba:c4:0a:3f:8c:a4:ad:cb:98:9c:c0:f2:
                    8f:69:67:0f:c1:4e:33:cf:fc:85:5e:bb:5e:cf:93:
                    b0:cf:d9:f4:52:79:87:b1:f8:4d:15:68:65:d5:b7:
                    19:08:63:7f:5e:b1:34:ad:05:8f:5a:f0:e4:e1:8f:
                    25:f2:5c:5c:61:95:b0:56:2d:31:2b:08:65:79:e5:
                    b1:3b:9d:3e:b9:52:4b:ac:5d:c4:58:66:85:8d:81:
                    b3:04:28:f4:3f:2f:ac:92:01:62:d5:fd:8e:0b:da:
                    02:0c:7a:c7:6e:09:1c:ac:1c:b2:4c:d7:54:b8:26:
                    33:b2:5f:14:f3:b1:f9:3d:62:4d:40:99:6b:b6:e7:
                    89:58:97:d6:d4:4d:ea:4b:68:52:f3:3c:a8:b1:35:
                    88:db
                Exponent: 65537 (0x10001)
        X509v3 extensions:
            X509v3 Subject Key Identifier: 
                A1:DF:33:C3:CF:3E:53:41:A7:68:44:CC:AA:19:E1:84:C9:0D:BC:C6
            X509v3 Authority Key Identifier: 
                keyid:B4:11:33:F1:D7:E2:5E:F7:53:9E:20:22:10:4F:86:06:BF:1F:C9:5E
                DirName:/C=AU/O=Dodgy Brothers/CN=Dodgy CA
                serial:54:D6:A7:3A:34:4E:FC:1C:8D:DD:9D:49:EA:D1:43:49:32:07:25:F9
            X509v3 Basic Constraints: critical
                CA:TRUE, pathlen:1
            X509v3 Key Usage: 
                Certificate Sign, CRL Sign
            X509v3 Issuer Alternative Name: 
                <EMPTY>

    Signature Algorithm: sha1WithRSAEncryption
    Signature Value:
        94:91:50:87:70:e6:ce:4d:69:98:37:7a:08:f8:8b:c2:c2:a6:
        cd:5c:58:fb:73:fe:2c:5b:66:f4:19:46:65:46:2f:99:62:2d:
        90:75:18:8d:88:ba:68:b6:72:3d:bd:6d:87:ea:56:e5:9c:38:
        2c:9f:cc:5d:e1:e3:16:2f:44:e1:86:1f:f2:dc:35:a5:2a:97:
        98:7a:04:16:96:9c:c3:4d:b2:2a:ca:01:ab:0d:de:4c:87:b8:
        73:ba:26:3f:16:08:b3:5d:db:b2:8b:3f:fe:4d:76:90:9e:e6:
        09:1f:50:5f:25:bb:5c:c4:f8:87:11:21:81:a2:a5:9a:8c:1b:
        fc:6c:80:81:ed:0f:fd:ed:3d:4a:2b:6a:9c:4f:56:4b:51:26:
        1c:84:af:61:10:a6:33:f9:b4:f0:38:3f:5f:e9:37:56:a0:88:
        12:c2:ee:cb:23:41:49:e4:e1:11:b3:70:cf:13:06:3d:a5:c3:
        f9:33:2c:d3:5e:b0:df:9c:5d:29:d4:0c:71:23:33:3b:10:fd:
        03:82:57:4a:5f:68:f3:e6:ec:48:74:25:57:02:54:d8:f4:e6:
        15:92:e6:a2:e4:47:1f:db:82:59:00:82:e3:30:07:dd:7a:e2:
        33:d9:66:ab:88:73:32:07:a9:40:ec:2d:08:92:8a:0c:ec:77:
        42:8d:a4:a6
-----BEGIN CERTIFICATE-----
MIID4zCCAsugAwIBAgIULH7ytSJ8SbYfgJGT7qCtL1Lfu2EwDQYJKoZIhvcNAQEF
BQAwOTELMAkGA1UEBhMCQVUxFzAVBgNVBAoMDkRvZGd5IEJyb3RoZXJzMREwDwYD
VQQDDAhEb2RneSBDQTAeFw0yNTAzMjUxNDMzMTNaFw0yNjAzMjUxNDMzMTNaMFcx
CzAJBgNVBAYTAkFVMRcwFQYDVQQKDA5Eb2RneSBCcm90aGVyczESMBAGA1UEAwwJ
QnJvdGhlciAxMRswGQYDVQQDDBJuZXh0dXBkYXRlX2ludmFsaWQwggEiMA0GCSqG
SIb3DQEBAQUAA4IBDwAwggEKAoIBAQC+lYb6cUxq6lGYUEuZoSxmFfNg8+H/afvO
SAEd/uEsOLDjvY9LSKd+OsZz46u/4dpulvX+w+S0qK28VjTUliV0J8MQ2zUQJRyO
S4Gb+0IEfG894jhsDuQujioYbTDNZyojazfPBZ/Mt1lYf7rECj+MpK3LmJzA8o9p
Zw/BTjPP/IVeu17Pk7DP2fRSeYex+E0VaGXVtxkIY39esTStBY9a8OThjyXyXFxh
lbBWLTErCGV55bE7nT65UkusXcRYZoWNgbMEKPQ/L6ySAWLV/Y4L2gIMesduCRys
HLJM11S4JjOyXxTzsfk9Yk1AmWu254lYl9bUTepLaFLzPKixNYjbAgMBAAGjgcQw
gcEwHQYDVR0OBBYEFKHfM8PPPlNBp2hEzKoZ4YTJDbzGMHQGA1UdIwRtMGuAFLQR
M/HX4l73U54gIhBPhga/H8leoT2kOzA5MQswCQYDVQQGEwJBVTEXMBUGA1UECgwO
RG9kZ3kgQnJvdGhlcnMxETAPBgNVBAMMCERvZGd5IENBghRU1qc6NE78HI3dnUnq
0UNJMgcl+TASBgNVHRMBAf8ECDAGAQH/AgEBMAsGA1UdDwQEAwIBBjAJBgNVHRIE
AjAAMA0GCSqGSIb3DQEBBQUAA4IBAQCUkVCHcObOTWmYN3oI+IvCwqbNXFj7c/4s
W2b0GUZlRi+ZYi2QdRiNiLpotnI9vW2H6lblnDgsn8xd4eMWL0Thhh/y3DWlKpeY
egQWlpzDTbIqygGrDd5Mh7hzuiY/FgizXduyiz/+TXaQnuYJH1BfJbtcxPiHESGB
oqWajBv8bICB7Q/97T1KK2qcT1ZLUSYchK9hEKYz+bTwOD9f6TdWoIgSwu7LI0FJ
5OERs3DPEwY9pcP5MyzTXrDfnF0p1AxxIzM7EP0DgldKX2jz5uxIdCVXAlTY9OYV
kuai5Ecf24JZAILjMAfdeuIz2WariHMyB6lA7C0IkooM7HdCjaSm
-----END CERTIFICATE-----
