Certificate:
    Data:
        Version: 3 (0x2)
        Serial Number:
            2c:7e:f2:b5:22:7c:49:b6:1f:80:91:93:ee:a0:ad:2f:52:df:bb:62
        Signature Algorithm: sha1WithRSAEncryption
        Issuer: C=AU, O=Dodgy Brothers, CN=Dodgy CA
        Validity
            Not Before: Mar 25 14:33:13 2025 GMT
            Not After : Mar 25 14:33:13 2026 GMT
        Subject: C=AU, O=Dodgy Brothers, CN=Brother 1, CN=nextupdate_utctime
        Subject Public Key Info:
            Public Key Algorithm: rsaEncryption
                Public-Key: (2048 bit)
                Modulus:
                    00:be:95:86:fa:71:4c:6a:ea:51:98:50:4b:99:a1:
                    2c:66:15:f3:60:f3:e1:ff:69:fb:ce:48:01:1d:fe:
                    e1:2c:38:b0:e3:bd:8f:4b:48:a7:7e:3a:c6:73:e3:
                    ab:bf:e1:da:6e:96:f5:fe:c3:e4:b4:a8:ad:bc:56:
                    34:d4:96:25:74:27:c3:10:db:35:10:25:1c:8e:4b:
                    81:9b:fb:42:04:7c:6f:3d:e2:38:6c:0e:e4:2e:8e:
                    2a:18:6d:30:cd:67:2a:23:6b:37:cf:05:9f:cc:b7:
                    59:58:7f:ba:c4:0a:3f:8c:a4:ad:cb:98:9c:c0:f2:
                    8f:69:67:0f:c1:4e:33:cf:fc:85:5e:bb:5e:cf:93:
                    b0:cf:d9:f4:52:79:87:b1:f8:4d:15:68:65:d5:b7:
                    19:08:63:7f:5e:b1:34:ad:05:8f:5a:f0:e4:e1:8f:
                    25:f2:5c:5c:61:95:b0:56:2d:31:2b:08:65:79:e5:
                    b1:3b:9d:3e:b9:52:4b:ac:5d:c4:58:66:85:8d:81:
                    b3:04:28:f4:3f:2f:ac:92:01:62:d5:fd:8e:0b:da:
                    02:0c:7a:c7:6e:09:1c:ac:1c:b2:4c:d7:54:b8:26:
                    33:b2:5f:14:f3:b1:f9:3d:62:4d:40:99:6b:b6:e7:
                    89:58:97:d6:d4:4d:ea:4b:68:52:f3:3c:a8:b1:35:
                    88:db
                Exponent: 65537 (0x10001)
        X509v3 extensions:
            X509v3 Subject Key Identifier: 
                A1:DF:33:C3:CF:3E:53:41:A7:68:44:CC:AA:19:E1:84:C9:0D:BC:C6
            X509v3 Authority Key Identifier: 
                keyid:B4:11:33:F1:D7:E2:5E:F7:53:9E:20:22:10:4F:86:06:BF:1F:C9:5E
                DirName:/C=AU/O=Dodgy Brothers/CN=Dodgy CA
                serial:54:D6:A7:3A:34:4E:FC:1C:8D:DD:9D:49:EA:D1:43:49:32:07:25:F9
            X509v3 Basic Constraints: critical
                CA:TRUE, pathlen:1
            X509v3 Key Usage: 
                Certificate Sign, CRL Sign
            X509v3 Issuer Alternative Name: 
                <EMPTY>

    Signature Algorithm: sha1WithRSAEncryption
    Signature Value:
        40:cf:23:4a:fb:e3:96:75:5d:5d:11:bb:47:d8:bc:35:4f:c7:
        c8:79:51:a7:be:bf:ad:8f:ec:7e:3c:9a:eb:d3:3c:e7:9e:4b:
        6a:e5:ed:0e:39:0a:05:e5:dd:bd:73:df:a1:19:43:8d:25:70:
        12:65:e4:b8:80:a4:d3:58:8e:be:0b:02:59:45:00:04:93:91:
        53:68:0c:cb:8a:3f:a7:59:68:fe:03:dd:3c:b2:15:f3:2b:b4:
        f1:54:33:72:a9:48:ad:cc:a3:61:1f:91:22:4a:4a:49:ec:f8:
        86:d0:22:16:d2:af:f2:fe:a3:c8:07:1e:81:1f:23:e1:01:64:
        90:a5:b0:78:0b:19:ae:55:ed:e8:bb:9b:5c:ca:59:42:15:a0:
        44:6a:d0:c3:9b:21:28:a6:0c:46:0d:0f:5a:b2:b8:9a:85:43:
        4d:af:ae:f7:05:88:03:33:91:45:3e:02:fc:6d:65:37:d0:3b:
        73:d4:8b:5b:73:f5:64:d9:69:c0:4a:4d:1f:e0:77:92:26:94:
        c9:25:79:8f:dd:b6:29:5e:46:74:05:a8:86:df:b7:d3:fe:a4:
        46:f8:8f:60:03:68:c0:9c:4f:a4:a5:04:40:e1:68:72:31:0f:
        35:a5:8a:55:33:ab:82:49:e9:33:0a:c8:85:ed:48:9f:12:3f:
        85:32:93:2d
-----BEGIN CERTIFICATE-----
MIID4zCCAsugAwIBAgIULH7ytSJ8SbYfgJGT7qCtL1Lfu2IwDQYJKoZIhvcNAQEF
BQAwOTELMAkGA1UEBhMCQVUxFzAVBgNVBAoMDkRvZGd5IEJyb3RoZXJzMREwDwYD
VQQDDAhEb2RneSBDQTAeFw0yNTAzMjUxNDMzMTNaFw0yNjAzMjUxNDMzMTNaMFcx
CzAJBgNVBAYTAkFVMRcwFQYDVQQKDA5Eb2RneSBCcm90aGVyczESMBAGA1UEAwwJ
QnJvdGhlciAxMRswGQYDVQQDDBJuZXh0dXBkYXRlX3V0Y3RpbWUwggEiMA0GCSqG
SIb3DQEBAQUAA4IBDwAwggEKAoIBAQC+lYb6cUxq6lGYUEuZoSxmFfNg8+H/afvO
SAEd/uEsOLDjvY9LSKd+OsZz46u/4dpulvX+w+S0qK28VjTUliV0J8MQ2zUQJRyO
S4Gb+0IEfG894jhsDuQujioYbTDNZyojazfPBZ/Mt1lYf7rECj+MpK3LmJzA8o9p
Zw/BTjPP/IVeu17Pk7DP2fRSeYex+E0VaGXVtxkIY39esTStBY9a8OThjyXyXFxh
lbBWLTErCGV55bE7nT65UkusXcRYZoWNgbMEKPQ/L6ySAWLV/Y4L2gIMesduCRys
HLJM11S4JjOyXxTzsfk9Yk1AmWu254lYl9bUTepLaFLzPKixNYjbAgMBAAGjgcQw
gcEwHQYDVR0OBBYEFKHfM8PPPlNBp2hEzKoZ4YTJDbzGMHQGA1UdIwRtMGuAFLQR
M/HX4l73U54gIhBPhga/H8leoT2kOzA5MQswCQYDVQQGEwJBVTEXMBUGA1UECgwO
RG9kZ3kgQnJvdGhlcnMxETAPBgNVBAMMCERvZGd5IENBghRU1qc6NE78HI3dnUnq
0UNJMgcl+TASBgNVHRMBAf8ECDAGAQH/AgEBMAsGA1UdDwQEAwIBBjAJBgNVHRIE
AjAAMA0GCSqGSIb3DQEBBQUAA4IBAQBAzyNK++OWdV1dEbtH2Lw1T8fIeVGnvr+t
j+x+PJrr0zznnktq5e0OOQoF5d29c9+hGUONJXASZeS4gKTTWI6+CwJZRQAEk5FT
aAzLij+nWWj+A908shXzK7TxVDNyqUitzKNhH5EiSkpJ7PiG0CIW0q/y/qPIBx6B
HyPhAWSQpbB4CxmuVe3ou5tcyllCFaBEatDDmyEopgxGDQ9asriahUNNr673BYgD
M5FFPgL8bWU30Dtz1Itbc/Vk2WnASk0f4HeSJpTJJXmP3bYpXkZ0BaiG37fT/qRG
+I9gA2jAnE+kpQRA4WhyMQ81pYpVM6uCSekzCsiF7UifEj+FMpMt
-----END CERTIFICATE-----
