Certificate:
    Data:
        Version: 3 (0x2)
        Serial Number:
            2c:7e:f2:b5:22:7c:49:b6:1f:80:91:93:ee:a0:ad:2f:52:df:bb:63
        Signature Algorithm: sha1WithRSAEncryption
        Issuer: C=AU, O=Dodgy Brothers, CN=Dodgy CA
        Validity
            Not Before: Mar 25 14:33:13 2025 GMT
            Not After : Mar 25 14:33:13 2026 GMT
        Subject: C=AU, O=Dodgy Brothers, CN=Brother 1, CN=nextupdate_generalizedtime
        Subject Public Key Info:
            Public Key Algorithm: rsaEncryption
                Public-Key: (2048 bit)
                Modulus:
                    00:be:95:86:fa:71:4c:6a:ea:51:98:50:4b:99:a1:
                    2c:66:15:f3:60:f3:e1:ff:69:fb:ce:48:01:1d:fe:
                    e1:2c:38:b0:e3:bd:8f:4b:48:a7:7e:3a:c6:73:e3:
                    ab:bf:e1:da:6e:96:f5:fe:c3:e4:b4:a8:ad:bc:56:
                    34:d4:96:25:74:27:c3:10:db:35:10:25:1c:8e:4b:
                    81:9b:fb:42:04:7c:6f:3d:e2:38:6c:0e:e4:2e:8e:
                    2a:18:6d:30:cd:67:2a:23:6b:37:cf:05:9f:cc:b7:
                    59:58:7f:ba:c4:0a:3f:8c:a4:ad:cb:98:9c:c0:f2:
                    8f:69:67:0f:c1:4e:33:cf:fc:85:5e:bb:5e:cf:93:
                    b0:cf:d9:f4:52:79:87:b1:f8:4d:15:68:65:d5:b7:
                    19:08:63:7f:5e:b1:34:ad:05:8f:5a:f0:e4:e1:8f:
                    25:f2:5c:5c:61:95:b0:56:2d:31:2b:08:65:79:e5:
                    b1:3b:9d:3e:b9:52:4b:ac:5d:c4:58:66:85:8d:81:
                    b3:04:28:f4:3f:2f:ac:92:01:62:d5:fd:8e:0b:da:
                    02:0c:7a:c7:6e:09:1c:ac:1c:b2:4c:d7:54:b8:26:
                    33:b2:5f:14:f3:b1:f9:3d:62:4d:40:99:6b:b6:e7:
                    89:58:97:d6:d4:4d:ea:4b:68:52:f3:3c:a8:b1:35:
                    88:db
                Exponent: 65537 (0x10001)
        X509v3 extensions:
            X509v3 Subject Key Identifier: 
                A1:DF:33:C3:CF:3E:53:41:A7:68:44:CC:AA:19:E1:84:C9:0D:BC:C6
            X509v3 Authority Key Identifier: 
                keyid:B4:11:33:F1:D7:E2:5E:F7:53:9E:20:22:10:4F:86:06:BF:1F:C9:5E
                DirName:/C=AU/O=Dodgy Brothers/CN=Dodgy CA
                serial:54:D6:A7:3A:34:4E:FC:1C:8D:DD:9D:49:EA:D1:43:49:32:07:25:F9
            X509v3 Basic Constraints: critical
                CA:TRUE, pathlen:1
            X509v3 Key Usage: 
                Certificate Sign, CRL Sign
            X509v3 Issuer Alternative Name: 
                <EMPTY>

    Signature Algorithm: sha1WithRSAEncryption
    Signature Value:
        50:3e:5b:86:74:d6:de:e1:2c:d1:2b:f2:de:62:8b:73:f3:8a:
        16:d1:93:c1:df:d0:a7:78:ba:c1:64:6e:bf:9a:23:b5:fc:e6:
        d9:7c:dd:aa:de:6d:f5:65:1b:cf:fb:89:cb:84:cc:db:ff:5e:
        80:35:d5:25:e4:68:ad:9a:c1:4e:2f:ef:07:59:99:1a:88:17:
        4f:42:d6:f8:6d:95:9f:14:49:9d:3f:c9:ca:8d:56:5c:ab:83:
        79:96:c7:37:0b:cc:f5:aa:ec:83:0a:07:fb:b2:e8:bd:9d:7a:
        aa:1d:8a:40:6d:09:28:06:74:cb:c9:6e:d2:cd:45:41:52:b2:
        3e:8c:a6:20:bf:2c:45:ca:08:81:38:8c:09:31:fd:65:12:9d:
        ae:e5:7c:8f:3d:1d:9c:bf:b5:8b:84:34:1e:1b:be:2f:ff:91:
        37:59:a9:89:10:32:5c:cd:c7:3c:26:d4:a0:cf:e6:27:c1:0f:
        7b:a1:4d:17:7a:7a:15:c9:5d:09:0b:e5:16:e2:68:0d:36:5f:
        bb:6a:aa:19:fe:27:ae:d4:34:9f:fc:0e:60:78:71:b6:a5:77:
        e1:a6:7d:6a:de:60:76:f3:33:55:5d:23:7c:a6:20:e6:12:13:
        91:cc:f6:60:61:29:37:d4:88:4c:90:ff:06:e0:90:93:2d:ec:
        29:4e:36:62
-----BEGIN CERTIFICATE-----
MIID6zCCAtOgAwIBAgIULH7ytSJ8SbYfgJGT7qCtL1Lfu2MwDQYJKoZIhvcNAQEF
BQAwOTELMAkGA1UEBhMCQVUxFzAVBgNVBAoMDkRvZGd5IEJyb3RoZXJzMREwDwYD
VQQDDAhEb2RneSBDQTAeFw0yNTAzMjUxNDMzMTNaFw0yNjAzMjUxNDMzMTNaMF8x
CzAJBgNVBAYTAkFVMRcwFQYDVQQKDA5Eb2RneSBCcm90aGVyczESMBAGA1UEAwwJ
QnJvdGhlciAxMSMwIQYDVQQDDBpuZXh0dXBkYXRlX2dlbmVyYWxpemVkdGltZTCC
ASIwDQYJKoZIhvcNAQEBBQADggEPADCCAQoCggEBAL6VhvpxTGrqUZhQS5mhLGYV
82Dz4f9p+85IAR3+4Sw4sOO9j0tIp346xnPjq7/h2m6W9f7D5LSorbxWNNSWJXQn
wxDbNRAlHI5LgZv7QgR8bz3iOGwO5C6OKhhtMM1nKiNrN88Fn8y3WVh/usQKP4yk
rcuYnMDyj2lnD8FOM8/8hV67Xs+TsM/Z9FJ5h7H4TRVoZdW3GQhjf16xNK0Fj1rw
5OGPJfJcXGGVsFYtMSsIZXnlsTudPrlSS6xdxFhmhY2BswQo9D8vrJIBYtX9jgva
Agx6x24JHKwcskzXVLgmM7JfFPOx+T1iTUCZa7bniViX1tRN6ktoUvM8qLE1iNsC
AwEAAaOBxDCBwTAdBgNVHQ4EFgQUod8zw88+U0GnaETMqhnhhMkNvMYwdAYDVR0j
BG0wa4AUtBEz8dfiXvdTniAiEE+GBr8fyV6hPaQ7MDkxCzAJBgNVBAYTAkFVMRcw
FQYDVQQKDA5Eb2RneSBCcm90aGVyczERMA8GA1UEAwwIRG9kZ3kgQ0GCFFTWpzo0
Tvwcjd2dSerRQ0kyByX5MBIGA1UdEwEB/wQIMAYBAf8CAQEwCwYDVR0PBAQDAgEG
MAkGA1UdEgQCMAAwDQYJKoZIhvcNAQEFBQADggEBAFA+W4Z01t7hLNEr8t5ii3Pz
ihbRk8Hf0Kd4usFkbr+aI7X85tl83arebfVlG8/7icuEzNv/XoA11SXkaK2awU4v
7wdZmRqIF09C1vhtlZ8USZ0/ycqNVlyrg3mWxzcLzPWq7IMKB/uy6L2deqodikBt
CSgGdMvJbtLNRUFSsj6MpiC/LEXKCIE4jAkx/WUSna7lfI89HZy/tYuENB4bvi//
kTdZqYkQMlzNxzwm1KDP5ifBD3uhTRd6ehXJXQkL5RbiaA02X7tqqhn+J67UNJ/8
DmB4cbald+GmfWreYHbzM1VdI3ymIOYSE5HM9mBhKTfUiEyQ/wbgkJMt7ClONmI=
-----END CERTIFICATE-----
