Certificate:
    Data:
        Version: 3 (0x2)
        Serial Number: 1234567890 (0x499602d2)
        Signature Algorithm: sha256WithRSAEncryption
        Issuer: CN=ca.example.com
        Validity
            Not Before: Apr  7 13:18:30 2025 GMT
            Not After : Apr  7 13:18:30 2026 GMT
        Subject: CN=test.example.com
        Subject Public Key Info:
            Public Key Algorithm: rsaEncryption
                Public-Key: (2048 bit)
                Modulus:
                    00:b6:fe:fd:0d:c4:b3:a7:e7:61:14:08:33:9d:dd:
                    e0:4e:e4:fd:07:4e:74:c3:ae:a1:09:a2:b2:98:9b:
                    ca:c5:62:01:1d:34:fc:36:32:e2:f0:ad:7e:2e:aa:
                    07:b1:4a:3f:12:e1:5a:0a:1f:b7:c4:3b:13:26:2c:
                    c2:52:c0:15:a6:ac:69:90:ba:a9:a2:bb:f2:90:bc:
                    63:2e:4a:d0:aa:df:f1:67:45:2c:0e:15:47:2b:2a:
                    9a:2f:6e:6a:0b:1a:46:1f:2a:96:26:2e:7b:22:96:
                    28:69:16:9f:37:e2:26:40:45:17:32:cf:d2:2d:be:
                    fe:10:71:dc:ad:42:c0:31:5a:e2:9d:10:ef:3a:06:
                    dc:f3:95:2e:3f:8f:ce:ca:d2:5f:fc:50:5b:2f:2a:
                    fa:06:26:b2:c3:55:7e:c2:fb:e5:8b:c7:50:7f:62:
                    3d:9a:bc:61:3b:d1:58:d0:fc:62:65:f9:63:13:b4:
                    c0:f2:5f:c8:da:52:de:2b:65:ab:79:bb:f7:a3:78:
                    37:96:b6:c9:8e:f1:42:c5:8b:a9:f2:6c:05:ca:40:
                    2a:ee:8c:cc:c1:98:46:48:77:e9:c3:ce:b3:1b:b7:
                    b1:8c:c0:a2:b1:f1:14:53:a0:7b:5f:87:60:a1:66:
                    c1:8d:31:10:6b:7d:36:8e:2d:6d:69:37:18:1c:17:
                    68:2d
                Exponent: 65537 (0x10001)
        X509v3 extensions:
            X509v3 Subject Key Identifier: 
                36:7C:B5:0E:E7:B6:71:02:C8:5A:E8:F8:3F:E0:BC:1C:3E:AB:9B:34
            X509v3 Authority Key Identifier: 
                36:7C:B5:0E:E7:B6:71:02:C8:5A:E8:F8:3F:E0:BC:1C:3E:AB:9B:34
            X509v3 Basic Constraints: critical
                CA:TRUE
    Signature Algorithm: sha256WithRSAEncryption
    Signature Value:
        b4:fb:d7:81:68:f5:59:a6:91:59:0a:39:c9:70:7f:40:94:19:
        f5:86:f6:97:2b:8f:89:ae:5b:5d:58:1e:70:fb:94:f7:ff:6d:
        4f:4b:c1:8c:6d:27:b2:08:3b:56:16:e0:af:4d:62:43:48:6e:
        87:07:33:2f:c6:34:b3:88:03:7c:e4:1b:a6:f5:c5:6b:93:91:
        32:dd:96:cc:9d:98:af:e5:e6:44:e8:8e:0a:61:6b:7f:f5:2f:
        6e:a3:b8:37:2c:91:7f:9c:8b:c9:bd:82:aa:7c:e4:80:d8:74:
        9b:4c:c9:e9:97:93:3f:ca:c4:82:cb:64:91:d4:79:50:9c:dc:
        de:0f:e3:1d:9a:c7:38:e4:72:3d:d5:40:c5:86:38:4b:bf:32:
        5d:78:8b:55:45:18:91:e3:14:ef:b6:2d:b7:80:3c:01:77:4e:
        9f:11:ca:af:46:be:3e:67:94:d3:39:85:a6:a1:fb:0d:0b:0b:
        da:40:48:2c:19:0f:c1:db:49:5f:5d:13:2f:95:0e:20:bf:80:
        30:18:bc:f2:f6:a1:20:99:91:16:b7:37:96:18:85:6f:fc:a2:
        46:c0:9f:bf:5d:8e:35:56:f3:00:e2:2e:a8:f5:f1:f2:ad:43:
        5c:3d:be:c7:8b:18:fa:cb:ad:44:7b:c7:92:23:7c:0a:89:40:
        ae:6f:39:14:e3:c2:f5:4f:f1:d2:77:5d:60:61:57:13:8b:73:
        94:bb:35:4e:71:03:58:de:10:4e:30:59:07:02:ea:cb:e1:9f:
        95:4c:03:8f:29:a5:06:3d:89:69:98:7a:05:70:73:e9:fa:e7:
        19:c4:fc:28:cb:2a:b5:03:41:e2:45:48:20:be:70:c3:17:ab:
        29:67:fd:d1:a6:68:62:19:dd:6b:ec:b7:a9:c9:35:df:2d:e3:
        81:e9:3e:0d:bc:55:f6:d9:aa:7f:46:06:00:46:cd:80:ab:64:
        8f:bd:42:6d:c8:ec:27:ea:62:b8:86:f4:dd:55:f7:2d:a3:a0:
        49:b0:56:fb:5c:ca:37:ae:86:f0:09:09:80:6e:67:6a:ee:a9:
        3b:73:30:1d:49:de:ef:86:7f:c5:61:91:26:78:84:22:e0:a1:
        87:cc:0f:5a:65:6f:a9:40:81:c6:32:51:48:79:50:1f:40:e7:
        29:5d:83:20:29:f9:5c:1b:98:68:05:6a:b4:0d:66:19:40:f7:
        d6:d0:69:19:c3:74:75:ff:76:c7:a8:16:e0:31:26:b6:9f:e7:
        42:b0:1c:12:d3:fd:f6:ea:ce:da:4e:6c:72:e8:98:6d:9d:0e:
        c6:4a:e5:bb:ea:0b:f2:b3:56:df:6f:37:13:2d:be:74:55:0f:
        c3:ef:43:43:6a:14:0d:3b
-----BEGIN CERTIFICATE-----
MIIEBTCCAe2gAwIBAgIESZYC0jANBgkqhkiG9w0BAQsFADAZMRcwFQYDVQQDDA5j
YS5leGFtcGxlLmNvbTAeFw0yNTA0MDcxMzE4MzBaFw0yNjA0MDcxMzE4MzBaMBsx
GTAXBgNVBAMMEHRlc3QuZXhhbXBsZS5jb20wggEiMA0GCSqGSIb3DQEBAQUAA4IB
DwAwggEKAoIBAQC2/v0NxLOn52EUCDOd3eBO5P0HTnTDrqEJorKYm8rFYgEdNPw2
MuLwrX4uqgexSj8S4VoKH7fEOxMmLMJSwBWmrGmQuqmiu/KQvGMuStCq3/FnRSwO
FUcrKpovbmoLGkYfKpYmLnsilihpFp834iZARRcyz9Itvv4QcdytQsAxWuKdEO86
BtzzlS4/j87K0l/8UFsvKvoGJrLDVX7C++WLx1B/Yj2avGE70VjQ/GJl+WMTtMDy
X8jaUt4rZat5u/ejeDeWtsmO8ULFi6nybAXKQCrujMzBmEZId+nDzrMbt7GMwKKx
8RRToHtfh2ChZsGNMRBrfTaOLW1pNxgcF2gtAgMBAAGjUzBRMB0GA1UdDgQWBBQ2
fLUO57ZxAsha6Pg/4LwcPqubNDAfBgNVHSMEGDAWgBQ2fLUO57ZxAsha6Pg/4Lwc
PqubNDAPBgNVHRMBAf8EBTADAQH/MA0GCSqGSIb3DQEBCwUAA4ICAQC0+9eBaPVZ
ppFZCjnJcH9AlBn1hvaXK4+JrltdWB5w+5T3/21PS8GMbSeyCDtWFuCvTWJDSG6H
BzMvxjSziAN85Bum9cVrk5Ey3ZbMnZiv5eZE6I4KYWt/9S9uo7g3LJF/nIvJvYKq
fOSA2HSbTMnpl5M/ysSCy2SR1HlQnNzeD+Mdmsc45HI91UDFhjhLvzJdeItVRRiR
4xTvti23gDwBd06fEcqvRr4+Z5TTOYWmofsNCwvaQEgsGQ/B20lfXRMvlQ4gv4Aw
GLzy9qEgmZEWtzeWGIVv/KJGwJ+/XY41VvMA4i6o9fHyrUNcPb7Hixj6y61Ee8eS
I3wKiUCubzkU48L1T/HSd11gYVcTi3OUuzVOcQNY3hBOMFkHAurL4Z+VTAOPKaUG
PYlpmHoFcHPp+ucZxPwoyyq1A0HiRUggvnDDF6spZ/3RpmhiGd1r7LepyTXfLeOB
6T4NvFX22ap/RgYARs2Aq2SPvUJtyOwn6mK4hvTdVfcto6BJsFb7XMo3robwCQmA
bmdq7qk7czAdSd7vhn/FYZEmeIQi4KGHzA9aZW+pQIHGMlFIeVAfQOcpXYMgKflc
G5hoBWq0DWYZQPfW0GkZw3R1/3bHqBbgMSa2n+dCsBwS0/326s7aTmxy6JhtnQ7G
SuW76gvys1bfbzcTLb50VQ/D70NDahQNOw==
-----END CERTIFICATE-----
