Certificate:
    Data:
        Version: 3 (0x2)
        Serial Number: 1234567890 (0x499602d2)
        Signature Algorithm: sha256WithRSAEncryption
        Issuer: CN=ca.example.com
        Validity
            Not Before: Mar 25 14:30:56 2025 GMT
            Not After : Mar 25 14:30:56 2026 GMT
        Subject: CN=test.example.com
        Subject Public Key Info:
            Public Key Algorithm: rsaEncryption
                Public-Key: (2048 bit)
                Modulus:
                    00:ba:e6:b9:5b:16:1b:02:f3:19:f4:66:23:80:dd:
                    dd:ac:ca:e5:08:b7:f2:f5:e5:fb:85:14:f3:c8:44:
                    dc:b1:d5:f3:98:47:64:7d:31:e0:b3:19:ac:1c:eb:
                    cc:d3:92:41:be:0f:d0:3d:4a:77:8e:b7:0f:89:08:
                    da:73:22:75:5b:d0:da:fa:85:25:ce:2b:24:45:e9:
                    e8:fb:de:19:67:49:a7:bc:86:b7:35:69:e9:64:d9:
                    90:6d:11:ad:98:02:73:30:06:6d:94:50:20:4a:b0:
                    6c:4f:3a:32:ea:e4:63:e0:fd:f0:83:4e:13:1b:37:
                    66:fd:0f:cc:ba:d3:9c:ff:5c:0d:41:e6:55:d3:24:
                    01:3a:57:de:c9:3c:d2:74:9c:64:e8:aa:5c:76:bd:
                    b3:9b:67:13:76:71:a7:22:5a:3e:72:0d:2a:c8:e4:
                    4a:e0:03:ea:ae:b6:9b:d6:db:06:1c:24:aa:1d:66:
                    fa:85:df:4e:f0:65:25:52:c6:26:3c:7f:ae:e7:22:
                    a1:e1:56:7d:8d:1b:c0:d5:e8:1d:13:01:83:39:a3:
                    80:6d:1d:f0:f3:ac:4c:e7:08:94:3c:bd:51:11:9f:
                    b5:f5:f9:1c:78:14:80:ad:97:da:ef:f6:f4:55:f9:
                    f3:f7:cb:cd:1c:85:9f:3b:cc:b1:b2:8c:df:d2:99:
                    5b:8b
                Exponent: 65537 (0x10001)
        X509v3 extensions:
            X509v3 Subject Key Identifier: 
                BA:DF:6B:8D:59:0B:37:A7:9C:BB:49:41:10:F3:34:42:16:3C:88:70
            X509v3 Authority Key Identifier: 
                BA:DF:6B:8D:59:0B:37:A7:9C:BB:49:41:10:F3:34:42:16:3C:88:70
            X509v3 Basic Constraints: critical
                CA:TRUE
    Signature Algorithm: sha256WithRSAEncryption
    Signature Value:
        88:27:6f:c4:42:e3:27:2f:4f:f1:ad:ab:be:67:a8:de:90:33:
        d5:48:f2:35:20:a9:5d:27:e5:26:f3:94:d3:9c:af:5f:7e:41:
        88:9a:c1:a5:7c:db:28:e6:ad:08:8b:69:91:8f:f4:8b:c0:a3:
        34:ed:be:21:02:dd:9e:32:20:49:14:36:ff:df:77:27:aa:b7:
        fd:53:cf:17:ee:fd:b4:fa:fe:6b:da:26:86:18:81:01:fa:d1:
        34:33:e0:d0:29:2d:42:ec:ed:1a:c2:05:90:a3:97:2e:9f:73:
        56:0f:89:7a:ed:38:68:db:7c:22:c4:24:9a:36:75:a0:7d:10:
        c9:b9:1f:e7:33:d8:62:c6:87:9e:92:8c:e4:6c:1b:bb:e5:58:
        c5:58:52:8b:ab:46:3e:24:5f:20:24:92:83:66:d3:26:56:7a:
        e3:c7:18:01:e6:a8:9a:8b:74:f3:f0:31:fd:b7:ae:59:a5:14:
        ad:4a:60:36:15:b6:3f:b3:8a:ba:cf:a3:5d:37:d6:2e:89:3b:
        8a:6d:14:ed:59:00:64:aa:64:68:d0:1f:5b:2e:dc:9e:46:41:
        29:7c:98:0f:7e:73:ec:29:2f:ce:54:50:7b:e6:70:b2:af:cb:
        ce:8e:35:bf:b6:40:ff:f0:df:1f:dd:a0:cc:f0:16:f4:89:e8:
        4a:14:8b:4a:bc:76:ce:17:49:2c:dc:ae:4a:12:b4:f9:4f:d5:
        d4:e6:4a:1c:1b:24:f6:0f:3a:93:91:e3:ed:71:04:7d:9d:56:
        ec:73:6e:c0:c3:14:e5:55:62:77:0a:0a:6c:e2:16:58:e2:13:
        be:33:2c:15:d5:bf:e3:2e:18:c7:66:ca:26:61:0c:8c:e9:fc:
        f9:fd:c6:ad:00:db:34:17:0a:da:f9:85:3e:04:7a:64:6d:10:
        43:58:29:d8:df:21:78:a6:7a:10:46:c7:fb:3c:47:94:74:13:
        0a:13:33:9e:90:25:95:68:83:cd:54:98:4f:a3:bc:65:ac:64:
        d4:96:09:4a:fe:c5:f2:58:ca:ed:26:59:76:d0:5e:e5:51:f6:
        88:8c:2f:60:c3:2e:b3:a5:36:f6:b0:00:d1:c0:35:59:70:fe:
        e2:89:95:8d:26:9c:7b:38:12:f7:b0:32:83:4b:4b:db:b3:f4:
        07:19:50:2a:42:af:b5:01:70:16:0e:31:17:2a:96:5b:13:2a:
        d5:08:4a:b7:6f:9d:75:c7:eb:45:f4:c8:5b:46:d0:28:32:ac:
        88:0f:8d:cb:4d:6b:3e:93:1f:bc:09:6e:a8:ab:8a:ac:c6:2b:
        3f:57:82:36:56:da:aa:2e:03:4e:01:25:cf:73:11:50:28:4b:
        5a:21:af:b6:79:11:e1:99
-----BEGIN CERTIFICATE-----
MIIEBTCCAe2gAwIBAgIESZYC0jANBgkqhkiG9w0BAQsFADAZMRcwFQYDVQQDDA5j
YS5leGFtcGxlLmNvbTAeFw0yNTAzMjUxNDMwNTZaFw0yNjAzMjUxNDMwNTZaMBsx
GTAXBgNVBAMMEHRlc3QuZXhhbXBsZS5jb20wggEiMA0GCSqGSIb3DQEBAQUAA4IB
DwAwggEKAoIBAQC65rlbFhsC8xn0ZiOA3d2syuUIt/L15fuFFPPIRNyx1fOYR2R9
MeCzGawc68zTkkG+D9A9SneOtw+JCNpzInVb0Nr6hSXOKyRF6ej73hlnSae8hrc1
aelk2ZBtEa2YAnMwBm2UUCBKsGxPOjLq5GPg/fCDThMbN2b9D8y605z/XA1B5lXT
JAE6V97JPNJ0nGToqlx2vbObZxN2caciWj5yDSrI5ErgA+qutpvW2wYcJKodZvqF
307wZSVSxiY8f67nIqHhVn2NG8DV6B0TAYM5o4BtHfDzrEznCJQ8vVERn7X1+Rx4
FICtl9rv9vRV+fP3y80chZ87zLGyjN/SmVuLAgMBAAGjUzBRMB0GA1UdDgQWBBS6
32uNWQs3p5y7SUEQ8zRCFjyIcDAfBgNVHSMEGDAWgBS632uNWQs3p5y7SUEQ8zRC
FjyIcDAPBgNVHRMBAf8EBTADAQH/MA0GCSqGSIb3DQEBCwUAA4ICAQCIJ2/EQuMn
L0/xrau+Z6jekDPVSPI1IKldJ+Um85TTnK9ffkGImsGlfNso5q0Ii2mRj/SLwKM0
7b4hAt2eMiBJFDb/33cnqrf9U88X7v20+v5r2iaGGIEB+tE0M+DQKS1C7O0awgWQ
o5cun3NWD4l67Tho23wixCSaNnWgfRDJuR/nM9hixoeekozkbBu75VjFWFKLq0Y+
JF8gJJKDZtMmVnrjxxgB5qiai3Tz8DH9t65ZpRStSmA2FbY/s4q6z6NdN9YuiTuK
bRTtWQBkqmRo0B9bLtyeRkEpfJgPfnPsKS/OVFB75nCyr8vOjjW/tkD/8N8f3aDM
8Bb0iehKFItKvHbOF0ks3K5KErT5T9XU5kocGyT2DzqTkePtcQR9nVbsc27AwxTl
VWJ3Cgps4hZY4hO+MywV1b/jLhjHZsomYQyM6fz5/catANs0Fwra+YU+BHpkbRBD
WCnY3yF4pnoQRsf7PEeUdBMKEzOekCWVaIPNVJhPo7xlrGTUlglK/sXyWMrtJll2
0F7lUfaIjC9gwy6zpTb2sADRwDVZcP7iiZWNJpx7OBL3sDKDS0vbs/QHGVAqQq+1
AXAWDjEXKpZbEyrVCEq3b511x+tF9MhbRtAoMqyID43LTWs+kx+8CW6oq4qsxis/
V4I2VtqqLgNOASXPcxFQKEtaIa+2eRHhmQ==
-----END CERTIFICATE-----
