Certificate:
    Data:
        Version: 3 (0x2)
        Serial Number:
            77:4b:54:39:d2:99:4e:46:3c:7c:99:79:f7:bd:e4:3c:ab:a7:b3:9a
        Signature Algorithm: sha256WithRSAEncryption
        Issuer: CN=b.example.com
        Validity
            Not Before: Apr  7 13:18:32 2025 GMT
            Not After : May  7 13:18:32 2025 GMT
        Subject: CN=b.example.com
        Subject Public Key Info:
            Public Key Algorithm: rsaEncryption
                Public-Key: (4096 bit)
                Modulus:
                    00:92:4a:cb:cd:fc:87:49:2e:14:c2:e2:3a:4a:61:
                    41:ed:2b:8b:86:7a:4f:2e:af:25:6f:b5:76:eb:be:
                    fc:a7:9f:5a:ed:d0:d9:6a:fa:74:33:a2:ce:f9:7c:
                    bb:dd:a0:83:3e:07:73:5a:9b:ff:e3:1b:82:07:9d:
                    be:54:a1:e6:a9:c7:24:af:f4:02:c0:59:4b:1d:c7:
                    44:49:df:34:0b:ae:d1:93:08:c2:13:d3:53:cd:4c:
                    d0:cc:7d:b5:4d:2a:12:a7:5d:ea:a4:c8:78:4c:3d:
                    ce:60:08:89:6f:5d:16:b2:f7:cd:4c:aa:a0:b2:81:
                    db:59:88:42:f2:99:4c:f9:2c:38:51:7c:c3:ff:ff:
                    5f:5b:bc:60:d3:c9:c5:8e:79:99:ff:a9:a5:77:80:
                    37:21:e4:ff:5b:b7:cc:6d:30:2b:73:59:fe:02:5a:
                    99:3b:02:cd:25:70:d5:f3:d3:ac:85:3c:20:b7:e3:
                    01:d0:c4:4f:97:99:ca:a8:e5:43:f6:17:d7:66:91:
                    6a:56:11:58:27:af:10:fe:b2:ae:3c:85:e9:4e:55:
                    a7:e4:32:94:b6:5d:b9:a7:25:c6:52:f9:ee:56:48:
                    39:9b:89:ad:22:a5:1d:88:51:6d:fe:97:71:a5:41:
                    fe:9f:de:4e:ad:04:8d:bc:c0:03:14:fe:fa:39:ec:
                    fb:de:70:6e:dd:74:39:5a:83:81:be:5a:50:c9:e1:
                    c8:e2:d2:88:fb:dd:ed:36:3d:c5:08:48:47:1e:2b:
                    cf:41:93:e1:68:23:70:7d:ef:b9:8f:26:a9:08:69:
                    89:77:eb:f8:03:71:87:16:29:08:d6:e6:aa:1d:87:
                    f2:b8:ec:33:cf:a5:9e:b0:64:c9:2b:18:c4:ea:cf:
                    49:5f:60:e5:b9:52:b8:da:9b:72:46:6c:c3:10:96:
                    0b:d7:8a:d2:14:f4:22:c6:f8:ca:78:de:af:54:07:
                    20:5a:e9:6f:3c:7b:a1:27:5c:bb:dc:41:6b:90:2e:
                    72:e0:7a:b3:c8:2a:9c:b7:ae:e1:56:8c:14:92:48:
                    9b:e7:2f:d4:9e:f8:4f:49:cc:5e:d3:47:e3:3c:bd:
                    70:d1:d6:c6:8f:d8:8a:8c:ca:db:a5:8a:b0:4c:6c:
                    14:a3:75:66:e3:e4:2b:6a:45:9c:30:8d:4a:42:2d:
                    ec:1f:87:ea:db:00:d5:56:da:31:42:3f:8a:ce:f2:
                    35:ab:22:45:2a:66:3a:53:46:cf:78:60:46:c9:93:
                    b8:fe:df:0d:c6:46:a2:3f:ba:4e:78:7e:e1:73:09:
                    09:6d:3b:2e:65:d8:4c:51:a5:6a:8e:aa:da:d8:cd:
                    e0:5e:41:b4:48:cd:eb:63:8f:aa:0d:d1:ec:2b:ea:
                    39:b0:63
                Exponent: 65537 (0x10001)
        X509v3 extensions:
            X509v3 Subject Key Identifier: 
                FE:1E:F2:F3:1C:70:5D:F5:CC:C1:1F:04:7A:F6:1C:49:E1:8C:ED:31
    Signature Algorithm: sha256WithRSAEncryption
    Signature Value:
        1d:1c:8d:62:71:5f:0e:ca:88:95:bf:07:23:a7:95:be:9c:e3:
        bc:4b:d3:6e:8e:57:46:39:ff:85:da:8f:b6:02:18:b9:70:60:
        d2:0d:15:86:f9:c9:08:36:b1:43:c6:4f:7a:0b:40:70:68:c5:
        b4:ba:39:c9:07:51:71:cc:3c:0e:f1:ea:3a:11:2c:04:85:54:
        d7:83:64:38:a6:99:c7:f6:85:ba:91:da:81:38:f0:d4:6e:0f:
        25:c4:0f:e9:16:da:2c:4a:b3:1b:34:4e:64:08:22:50:0d:c4:
        dd:6d:d5:fa:fd:1b:25:bf:a8:f1:0a:16:a1:9c:15:8d:fe:51:
        74:60:f9:cd:4a:5b:36:34:4c:8e:8b:80:84:67:37:13:50:65:
        c1:68:6a:a7:40:38:97:f0:0d:b7:45:44:23:31:d8:c2:fa:73:
        f5:b2:f5:b1:48:c4:3f:5e:d9:5f:6a:62:51:2d:6d:01:cc:ab:
        6a:7c:84:44:d2:67:48:55:90:52:51:10:5b:a2:67:4d:9c:ed:
        6b:a4:cd:14:f6:90:b4:e1:ac:72:c9:0d:35:65:5f:29:cf:fd:
        b6:22:24:8a:72:32:c6:ae:49:33:42:34:d8:1f:6f:97:1a:eb:
        3d:c4:0d:22:51:2d:0e:f3:07:7e:42:c1:d2:41:e5:6f:d8:05:
        5a:7a:7d:de:66:a0:ef:7e:9e:a8:08:31:ef:4d:bf:ec:fc:9c:
        da:a0:d2:d4:16:e6:02:25:1b:22:94:cd:18:15:a3:65:40:bb:
        d6:18:6e:cd:ff:0d:7e:27:f7:d0:77:aa:d1:2d:fb:d8:77:47:
        86:ba:61:68:b7:d8:67:f6:95:f7:95:b4:be:2d:50:49:7f:b2:
        e5:87:c3:92:6e:0e:28:9a:56:4d:95:ad:3b:75:2e:47:d3:74:
        0b:34:f7:7c:57:75:6a:b8:1d:76:18:c6:81:1a:3f:b2:2a:ce:
        15:96:06:01:57:9d:c7:cc:c5:38:bf:90:1a:01:f6:63:ca:a7:
        17:6a:10:51:59:0e:fc:10:9b:18:ba:ff:ba:52:bc:42:18:bd:
        12:f0:57:0a:37:01:49:9f:74:53:08:c8:f0:da:5c:a5:83:3d:
        c5:b8:c3:06:5e:c3:6d:8c:15:04:98:6b:23:5f:32:62:c0:ab:
        2b:be:02:1a:c2:ba:59:23:c1:1f:c2:93:b5:b7:eb:47:a1:76:
        2d:ff:7d:73:a0:a4:59:3e:c3:fc:c4:41:39:99:55:6c:90:54:
        2f:ef:47:f9:87:ab:e0:f2:d0:f0:34:ad:0f:74:43:a8:17:53:
        40:ab:f3:2e:f5:41:6b:ba:26:c7:6c:25:85:b8:dd:e3:09:21:
        1b:2c:03:7f:94:a5:34:f8
-----BEGIN CERTIFICATE-----
MIIE3zCCAsegAwIBAgIUd0tUOdKZTkY8fJl5973kPKuns5owDQYJKoZIhvcNAQEL
BQAwGDEWMBQGA1UEAwwNYi5leGFtcGxlLmNvbTAeFw0yNTA0MDcxMzE4MzJaFw0y
NTA1MDcxMzE4MzJaMBgxFjAUBgNVBAMMDWIuZXhhbXBsZS5jb20wggIiMA0GCSqG
SIb3DQEBAQUAA4ICDwAwggIKAoICAQCSSsvN/IdJLhTC4jpKYUHtK4uGek8uryVv
tXbrvvynn1rt0Nlq+nQzos75fLvdoIM+B3Nam//jG4IHnb5UoeapxySv9ALAWUsd
x0RJ3zQLrtGTCMIT01PNTNDMfbVNKhKnXeqkyHhMPc5gCIlvXRay981MqqCygdtZ
iELymUz5LDhRfMP//19bvGDTycWOeZn/qaV3gDch5P9bt8xtMCtzWf4CWpk7As0l
cNXz06yFPCC34wHQxE+Xmcqo5UP2F9dmkWpWEVgnrxD+sq48helOVafkMpS2Xbmn
JcZS+e5WSDmbia0ipR2IUW3+l3GlQf6f3k6tBI28wAMU/vo57PvecG7ddDlag4G+
WlDJ4cji0oj73e02PcUISEceK89Bk+FoI3B977mPJqkIaYl36/gDcYcWKQjW5qod
h/K47DPPpZ6wZMkrGMTqz0lfYOW5Urjam3JGbMMQlgvXitIU9CLG+Mp43q9UByBa
6W88e6EnXLvcQWuQLnLgerPIKpy3ruFWjBSSSJvnL9Se+E9JzF7TR+M8vXDR1saP
2IqMytulirBMbBSjdWbj5CtqRZwwjUpCLewfh+rbANVW2jFCP4rO8jWrIkUqZjpT
Rs94YEbJk7j+3w3GRqI/uk54fuFzCQltOy5l2ExRpWqOqtrYzeBeQbRIzetjj6oN
0ewr6jmwYwIDAQABoyEwHzAdBgNVHQ4EFgQU/h7y8xxwXfXMwR8EevYcSeGM7TEw
DQYJKoZIhvcNAQELBQADggIBAB0cjWJxXw7KiJW/ByOnlb6c47xL026OV0Y5/4Xa
j7YCGLlwYNINFYb5yQg2sUPGT3oLQHBoxbS6OckHUXHMPA7x6joRLASFVNeDZDim
mcf2hbqR2oE48NRuDyXED+kW2ixKsxs0TmQIIlANxN1t1fr9GyW/qPEKFqGcFY3+
UXRg+c1KWzY0TI6LgIRnNxNQZcFoaqdAOJfwDbdFRCMx2ML6c/Wy9bFIxD9e2V9q
YlEtbQHMq2p8hETSZ0hVkFJREFuiZ02c7WukzRT2kLThrHLJDTVlXynP/bYiJIpy
MsauSTNCNNgfb5ca6z3EDSJRLQ7zB35CwdJB5W/YBVp6fd5moO9+nqgIMe9Nv+z8
nNqg0tQW5gIlGyKUzRgVo2VAu9YYbs3/DX4n99B3qtEt+9h3R4a6YWi32Gf2lfeV
tL4tUEl/suWHw5JuDiiaVk2VrTt1LkfTdAs093xXdWq4HXYYxoEaP7IqzhWWBgFX
ncfMxTi/kBoB9mPKpxdqEFFZDvwQmxi6/7pSvEIYvRLwVwo3AUmfdFMIyPDaXKWD
PcW4wwZew22MFQSYayNfMmLAqyu+AhrCulkjwR/Ck7W360ehdi3/fXOgpFk+w/zE
QTmZVWyQVC/vR/mHq+Dy0PA0rQ90Q6gXU0Cr8y71QWu6JsdsJYW43eMJIRssA3+U
pTT4
-----END CERTIFICATE-----
