Certificate:
    Data:
        Version: 3 (0x2)
        Serial Number:
            05:47:7b:1e:31:8b:d1:4a:e8:6e:1b:01:d0:cf:45:ad:ed:d2:0b:1f
        Signature Algorithm: sha256WithRSAEncryption
        Issuer: CN=b.example.com
        Validity
            Not Before: Mar 25 14:30:58 2025 GMT
            Not After : Apr 24 14:30:58 2025 GMT
        Subject: CN=b.example.com
        Subject Public Key Info:
            Public Key Algorithm: rsaEncryption
                Public-Key: (4096 bit)
                Modulus:
                    00:de:9d:f6:c8:2a:d2:97:f7:64:ac:ea:61:2e:2c:
                    a7:83:f6:c5:6b:de:3e:27:57:f2:d6:a6:42:ca:21:
                    6d:65:bc:ff:93:c7:6e:0a:28:d4:bb:e4:3b:ad:63:
                    d1:62:c9:c2:b5:d2:c8:20:48:d8:01:e2:b8:81:c4:
                    ca:d7:b8:90:cd:9c:1e:83:74:c7:2a:3e:bb:8c:d4:
                    74:b4:f9:0d:5f:cf:a7:42:d0:5b:a9:39:54:21:ac:
                    9b:ae:50:9d:b9:59:65:21:4b:4c:f6:e2:e1:d8:bf:
                    c4:b2:3c:f7:86:7b:37:8e:49:34:92:9f:d7:10:34:
                    f6:42:2b:3f:3a:3b:22:65:e7:0d:58:b8:f6:4d:fd:
                    bb:28:e0:f1:e4:69:ca:4d:57:61:b5:b2:31:fe:e4:
                    1c:7b:68:95:e2:e2:e2:f4:1c:d8:7d:20:e8:3b:6d:
                    bf:6b:4c:71:40:58:d9:f9:ff:c0:c3:08:75:6e:be:
                    f6:a3:83:40:b6:ad:07:e5:4c:16:7c:be:d1:ed:11:
                    3d:3d:ac:0e:5f:bb:ef:aa:d9:ae:1a:e7:63:95:ea:
                    db:76:f5:6d:a7:df:fa:52:72:7b:2c:bd:4d:75:84:
                    55:90:b2:d7:38:11:2d:2e:73:b3:c2:88:c5:6b:e1:
                    19:3a:53:7c:4a:e2:92:f1:7c:db:fc:b0:23:bc:c4:
                    2f:31:6b:be:c0:b8:21:9f:34:32:e6:d9:ee:96:0c:
                    57:78:ea:f7:8d:4e:37:bd:d4:c7:e4:86:53:d0:d4:
                    62:ba:35:f9:63:65:37:a2:00:ae:3d:14:9d:a2:be:
                    7d:68:1e:c5:94:28:75:76:a8:bb:3a:1a:2e:1e:f7:
                    39:64:b0:b4:4d:1c:71:e2:bf:3f:a1:1a:31:24:c1:
                    3f:96:5b:8f:15:32:77:c7:cc:05:15:59:53:d8:80:
                    4e:3a:88:07:de:8b:81:32:f7:16:27:e1:41:ed:fa:
                    bf:90:89:b3:ed:94:85:e6:f2:46:24:d7:26:80:60:
                    f1:17:ff:65:4a:91:42:6f:a6:c7:d8:81:a5:b0:eb:
                    0d:af:a4:1d:58:da:64:00:17:4b:c3:f2:9e:3a:ad:
                    97:60:99:83:b3:d0:8e:22:2c:56:6a:49:b4:e7:71:
                    5b:e6:bf:3e:69:66:7e:0e:a5:c8:d6:0d:fe:a5:aa:
                    77:b1:f4:1c:ae:99:d4:f1:4f:f6:8e:74:23:37:df:
                    64:15:38:bd:13:aa:20:a3:ee:89:76:d3:66:da:9d:
                    d3:4a:1a:76:77:dc:00:ea:33:59:9e:61:3f:01:2d:
                    41:09:72:a3:21:bc:2b:5b:70:68:83:0a:07:31:35:
                    dd:7e:82:b4:8c:e4:1a:68:29:8d:23:f1:12:2c:ea:
                    b4:d1:7d
                Exponent: 65537 (0x10001)
        X509v3 extensions:
            X509v3 Subject Key Identifier: 
                0E:D3:D2:75:50:33:DE:23:4A:61:65:AF:CF:1B:EF:6A:1C:7F:02:C4
    Signature Algorithm: sha256WithRSAEncryption
    Signature Value:
        18:39:17:9e:81:05:6b:ae:4e:ee:9b:3f:2f:4d:e9:49:33:5a:
        dc:1a:41:29:25:c2:43:59:7c:93:19:08:13:75:97:fc:51:44:
        3a:92:d1:b4:5f:d2:e0:b0:f7:58:7d:da:ad:40:aa:a4:4e:4a:
        87:04:3e:cf:85:02:05:26:c9:02:49:74:a1:b7:25:4e:5b:35:
        f6:0a:60:9e:46:85:f1:ee:1e:bf:d1:b6:32:98:d7:62:f2:7d:
        50:42:4e:a4:99:de:ef:ec:70:33:78:76:d8:d1:58:5e:50:cc:
        3d:4d:7d:cf:cf:b5:e9:2c:23:68:6f:89:9b:ea:c2:7f:1b:dc:
        23:99:71:92:09:31:90:a9:d5:62:4a:01:f1:2a:93:83:05:bc:
        30:36:dd:8b:5d:7e:d8:8b:7c:d6:81:38:52:88:b0:5b:73:09:
        a1:5c:16:90:ed:a6:17:c5:ce:d2:39:ab:8e:af:15:f2:92:cf:
        ce:9a:3a:56:0c:cb:16:6a:08:3f:ab:59:78:58:b3:ca:e1:85:
        22:84:db:38:90:80:20:1e:cd:00:cd:24:2d:11:a5:5e:55:f5:
        1c:e7:df:70:a4:d4:16:ba:2e:81:84:20:95:86:01:51:b7:c0:
        fd:7d:7d:9d:72:e4:de:da:ae:dd:b8:cc:53:cb:91:29:5d:24:
        f0:95:03:4b:ae:ad:61:68:bf:60:6f:6b:65:30:48:67:d9:d7:
        cc:28:72:7f:c4:af:cb:d8:1d:91:a8:d4:21:e7:9c:85:1a:f5:
        7f:4c:a6:6d:47:b0:92:20:9d:21:38:c9:9c:12:f5:2f:6b:53:
        20:68:42:47:a9:b7:bf:6f:ad:84:9f:ff:7a:16:1d:71:38:72:
        17:c7:a7:21:06:5a:84:ab:06:cf:41:ed:fc:f2:bc:6a:e7:54:
        38:d2:a0:05:b1:69:11:4e:c5:51:e7:7c:08:23:f9:a8:ef:fd:
        c0:83:e0:92:6d:86:01:fc:b9:a9:f7:d9:bb:6e:f1:4c:3a:22:
        26:f3:1c:41:a0:99:b9:4a:27:e6:fd:dd:a2:c7:9c:60:5b:ed:
        82:dd:54:f2:6e:d0:16:76:31:3d:ca:82:04:a9:ec:71:43:7b:
        27:1b:45:36:6b:c5:5f:1e:a5:74:cd:fa:a1:99:c9:84:73:fe:
        1f:bc:df:50:62:f3:34:c3:4c:41:c2:6c:f9:dc:72:08:f6:f4:
        d8:d0:8f:41:1f:2e:55:89:ae:a3:e5:c2:f7:18:4b:41:c8:82:
        f9:83:40:da:3f:3b:f0:45:22:5a:05:c5:38:55:f2:12:75:fc:
        b0:07:af:89:bb:3c:04:b5:05:18:ae:20:fe:cf:0e:1d:33:9b:
        1f:95:87:cc:d3:fa:dc:d4
-----BEGIN CERTIFICATE-----
MIIE3zCCAsegAwIBAgIUBUd7HjGL0UrobhsB0M9Fre3SCx8wDQYJKoZIhvcNAQEL
BQAwGDEWMBQGA1UEAwwNYi5leGFtcGxlLmNvbTAeFw0yNTAzMjUxNDMwNThaFw0y
NTA0MjQxNDMwNThaMBgxFjAUBgNVBAMMDWIuZXhhbXBsZS5jb20wggIiMA0GCSqG
SIb3DQEBAQUAA4ICDwAwggIKAoICAQDenfbIKtKX92Ss6mEuLKeD9sVr3j4nV/LW
pkLKIW1lvP+Tx24KKNS75DutY9FiycK10sggSNgB4riBxMrXuJDNnB6DdMcqPruM
1HS0+Q1fz6dC0FupOVQhrJuuUJ25WWUhS0z24uHYv8SyPPeGezeOSTSSn9cQNPZC
Kz86OyJl5w1YuPZN/bso4PHkacpNV2G1sjH+5Bx7aJXi4uL0HNh9IOg7bb9rTHFA
WNn5/8DDCHVuvvajg0C2rQflTBZ8vtHtET09rA5fu++q2a4a52OV6tt29W2n3/pS
cnssvU11hFWQstc4ES0uc7PCiMVr4Rk6U3xK4pLxfNv8sCO8xC8xa77AuCGfNDLm
2e6WDFd46veNTje91MfkhlPQ1GK6NfljZTeiAK49FJ2ivn1oHsWUKHV2qLs6Gi4e
9zlksLRNHHHivz+hGjEkwT+WW48VMnfHzAUVWVPYgE46iAfei4Ey9xYn4UHt+r+Q
ibPtlIXm8kYk1yaAYPEX/2VKkUJvpsfYgaWw6w2vpB1Y2mQAF0vD8p46rZdgmYOz
0I4iLFZqSbTncVvmvz5pZn4OpcjWDf6lqnex9ByumdTxT/aOdCM332QVOL0TqiCj
7ol202bandNKGnZ33ADqM1meYT8BLUEJcqMhvCtbcGiDCgcxNd1+grSM5BpoKY0j
8RIs6rTRfQIDAQABoyEwHzAdBgNVHQ4EFgQUDtPSdVAz3iNKYWWvzxvvahx/AsQw
DQYJKoZIhvcNAQELBQADggIBABg5F56BBWuuTu6bPy9N6UkzWtwaQSklwkNZfJMZ
CBN1l/xRRDqS0bRf0uCw91h92q1AqqROSocEPs+FAgUmyQJJdKG3JU5bNfYKYJ5G
hfHuHr/RtjKY12LyfVBCTqSZ3u/scDN4dtjRWF5QzD1Nfc/PteksI2hviZvqwn8b
3COZcZIJMZCp1WJKAfEqk4MFvDA23YtdftiLfNaBOFKIsFtzCaFcFpDtphfFztI5
q46vFfKSz86aOlYMyxZqCD+rWXhYs8rhhSKE2ziQgCAezQDNJC0RpV5V9Rzn33Ck
1Ba6LoGEIJWGAVG3wP19fZ1y5N7art24zFPLkSldJPCVA0uurWFov2Bva2UwSGfZ
18wocn/Er8vYHZGo1CHnnIUa9X9Mpm1HsJIgnSE4yZwS9S9rUyBoQkept79vrYSf
/3oWHXE4chfHpyEGWoSrBs9B7fzyvGrnVDjSoAWxaRFOxVHnfAgj+ajv/cCD4JJt
hgH8uan32btu8Uw6IibzHEGgmblKJ+b93aLHnGBb7YLdVPJu0BZ2MT3KggSp7HFD
eycbRTZrxV8epXTN+qGZyYRz/h+831Bi8zTDTEHCbPnccgj29NjQj0EfLlWJrqPl
wvcYS0HIgvmDQNo/O/BFIloFxThV8hJ1/LAHr4m7PAS1BRiuIP7PDh0zmx+Vh8zT
+tzU
-----END CERTIFICATE-----
