Certificate:
    Data:
        Version: 3 (0x2)
        Serial Number:
            0b:e6:ab:2d:a3:68:14:3f:af:83:2c:67:ba:86:f9:5a:f6:30:99:e1
        Signature Algorithm: sha1WithRSAEncryption
        Issuer: C=AU, O=Dodgy Brothers, CN=Dodgy CA
        Validity
            Not Before: Apr  7 13:19:29 2025 GMT
            Not After : Apr  6 13:19:29 2028 GMT
        Subject: C=AU, O=Dodgy Brothers, CN=Dodgy CA
        Subject Public Key Info:
            Public Key Algorithm: rsaEncryption
                Public-Key: (2048 bit)
                Modulus:
                    00:96:9d:a4:3d:00:4b:1c:5f:c6:cb:dd:8f:d2:31:
                    b2:88:15:cc:c4:86:2c:5c:e2:69:8b:84:f4:a7:a3:
                    53:df:91:e3:bf:51:89:fb:f0:7c:10:0d:3b:ad:ac:
                    35:62:75:f5:7f:ff:f4:6e:54:8f:05:a6:92:23:b3:
                    9f:59:39:d0:39:18:b0:10:40:de:62:73:8a:4e:b0:
                    8e:df:dc:e7:c9:41:22:54:84:80:08:29:bc:35:3c:
                    86:df:30:de:dd:b4:24:ff:7e:62:a5:c0:7a:e8:2a:
                    16:3f:d6:97:da:c5:42:db:2f:69:64:91:cb:08:d7:
                    56:5a:79:7f:1b:84:41:e9:4d:9d:77:09:10:a8:6c:
                    29:33:44:c6:c0:54:65:e6:e8:e3:f2:75:05:6a:64:
                    95:6c:c0:f4:fd:25:61:6e:48:36:f0:c0:03:07:05:
                    d6:7c:e5:11:fd:18:e8:4a:2d:d3:72:0c:37:28:36:
                    31:31:38:85:e8:71:8d:d8:02:49:c8:bc:19:89:c5:
                    8a:b1:3f:a2:35:ea:aa:90:1c:64:68:7b:af:67:6a:
                    5a:06:54:0f:50:e1:f9:b4:f6:be:3a:d4:ce:3f:1e:
                    4c:7d:c6:77:32:3e:a2:58:ed:db:dd:74:d8:92:14:
                    6a:a8:f7:cb:34:58:91:a8:7c:14:b1:7d:08:b3:4d:
                    b1:47
                Exponent: 65537 (0x10001)
        X509v3 extensions:
            X509v3 Subject Key Identifier: 
                B4:11:33:F1:D7:E2:5E:F7:53:9E:20:22:10:4F:86:06:BF:1F:C9:5E
            X509v3 Authority Key Identifier: 
                keyid:B4:11:33:F1:D7:E2:5E:F7:53:9E:20:22:10:4F:86:06:BF:1F:C9:5E
                DirName:/C=AU/O=Dodgy Brothers/CN=Dodgy CA
                serial:0B:E6:AB:2D:A3:68:14:3F:AF:83:2C:67:BA:86:F9:5A:F6:30:99:E1
            X509v3 Basic Constraints: critical
                CA:TRUE, pathlen:1
            X509v3 Key Usage: 
                Certificate Sign, CRL Sign
            X509v3 Issuer Alternative Name: 
                <EMPTY>

    Signature Algorithm: sha1WithRSAEncryption
    Signature Value:
        03:ab:5e:a0:71:51:cb:5c:33:1d:fb:a8:74:03:8b:6d:5b:19:
        4f:ce:7c:6c:33:20:08:2e:a9:ac:26:c9:76:f1:49:28:15:ee:
        06:74:61:f2:f8:d1:08:de:49:41:4e:00:76:1e:e9:6d:19:1c:
        7e:b6:bc:cf:7c:87:d6:f2:28:3e:aa:9c:d9:72:65:51:05:bd:
        85:2b:e1:50:d2:b2:71:68:0e:98:38:a7:bc:fe:b7:9a:40:73:
        d5:63:98:90:b9:f4:0f:94:a2:db:f0:e5:f2:79:02:5f:41:91:
        8f:25:7b:94:6d:e2:69:db:92:ca:1b:31:f4:97:41:c5:16:26:
        7f:d4:ce:0d:e4:d5:c1:f0:18:08:93:c2:aa:ff:04:39:4b:3a:
        26:4b:b3:5e:21:73:7a:0a:67:1a:43:47:0e:42:59:34:a5:3e:
        68:f2:70:24:50:e4:d6:b1:b6:c8:82:f2:68:13:d1:97:21:44:
        71:ae:4c:85:8d:3d:40:bd:78:07:d1:d7:33:a9:a4:6d:c2:4b:
        e9:df:22:7e:4e:44:cf:bd:12:14:03:d3:b0:e3:40:0e:b7:1a:
        38:8f:04:b6:99:d6:24:d5:29:b6:87:8c:eb:c0:14:08:be:7f:
        fd:9f:ea:72:d9:fe:19:2a:54:80:45:e1:b0:ef:00:c9:41:20:
        5a:13:d8:cc
-----BEGIN CERTIFICATE-----
MIIDxTCCAq2gAwIBAgIUC+arLaNoFD+vgyxnuob5WvYwmeEwDQYJKoZIhvcNAQEF
BQAwOTELMAkGA1UEBhMCQVUxFzAVBgNVBAoMDkRvZGd5IEJyb3RoZXJzMREwDwYD
VQQDDAhEb2RneSBDQTAeFw0yNTA0MDcxMzE5MjlaFw0yODA0MDYxMzE5MjlaMDkx
CzAJBgNVBAYTAkFVMRcwFQYDVQQKDA5Eb2RneSBCcm90aGVyczERMA8GA1UEAwwI
RG9kZ3kgQ0EwggEiMA0GCSqGSIb3DQEBAQUAA4IBDwAwggEKAoIBAQCWnaQ9AEsc
X8bL3Y/SMbKIFczEhixc4mmLhPSno1PfkeO/UYn78HwQDTutrDVidfV///RuVI8F
ppIjs59ZOdA5GLAQQN5ic4pOsI7f3OfJQSJUhIAIKbw1PIbfMN7dtCT/fmKlwHro
KhY/1pfaxULbL2lkkcsI11ZaeX8bhEHpTZ13CRCobCkzRMbAVGXm6OPydQVqZJVs
wPT9JWFuSDbwwAMHBdZ85RH9GOhKLdNyDDcoNjExOIXocY3YAknIvBmJxYqxP6I1
6qqQHGRoe69naloGVA9Q4fm09r461M4/Hkx9xncyPqJY7dvddNiSFGqo98s0WJGo
fBSxfQizTbFHAgMBAAGjgcQwgcEwHQYDVR0OBBYEFLQRM/HX4l73U54gIhBPhga/
H8leMHQGA1UdIwRtMGuAFLQRM/HX4l73U54gIhBPhga/H8leoT2kOzA5MQswCQYD
VQQGEwJBVTEXMBUGA1UECgwORG9kZ3kgQnJvdGhlcnMxETAPBgNVBAMMCERvZGd5
IENBghQL5qsto2gUP6+DLGe6hvla9jCZ4TASBgNVHRMBAf8ECDAGAQH/AgEBMAsG
A1UdDwQEAwIBBjAJBgNVHRIEAjAAMA0GCSqGSIb3DQEBBQUAA4IBAQADq16gcVHL
XDMd+6h0A4ttWxlPznxsMyAILqmsJsl28UkoFe4GdGHy+NEI3klBTgB2HultGRx+
trzPfIfW8ig+qpzZcmVRBb2FK+FQ0rJxaA6YOKe8/reaQHPVY5iQufQPlKLb8OXy
eQJfQZGPJXuUbeJp25LKGzH0l0HFFiZ/1M4N5NXB8BgIk8Kq/wQ5SzomS7NeIXN6
CmcaQ0cOQlk0pT5o8nAkUOTWsbbIgvJoE9GXIURxrkyFjT1AvXgH0dczqaRtwkvp
3yJ+TkTPvRIUA9Ow40AOtxo4jwS2mdYk1Sm2h4zrwBQIvn/9n+py2f4ZKlSAReGw
7wDJQSBaE9jM
-----END CERTIFICATE-----
