Certificate:
    Data:
        Version: 3 (0x2)
        Serial Number:
            1b:28:f4:76:20:77:0b:16:d7:1b:8d:e9:3e:c1:be:2a:33:84:f4:b3
        Signature Algorithm: sha1WithRSAEncryption
        Issuer: C=AU, O=Dodgy Brothers, CN=Dodgy CA
        Validity
            Not Before: Apr  7 13:19:30 2025 GMT
            Not After : Apr  7 13:19:30 2026 GMT
        Subject: C=AU, O=Dodgy Brothers, CN=Brother 1, CN=lastupdate_invalid
        Subject Public Key Info:
            Public Key Algorithm: rsaEncryption
                Public-Key: (2048 bit)
                Modulus:
                    00:be:95:86:fa:71:4c:6a:ea:51:98:50:4b:99:a1:
                    2c:66:15:f3:60:f3:e1:ff:69:fb:ce:48:01:1d:fe:
                    e1:2c:38:b0:e3:bd:8f:4b:48:a7:7e:3a:c6:73:e3:
                    ab:bf:e1:da:6e:96:f5:fe:c3:e4:b4:a8:ad:bc:56:
                    34:d4:96:25:74:27:c3:10:db:35:10:25:1c:8e:4b:
                    81:9b:fb:42:04:7c:6f:3d:e2:38:6c:0e:e4:2e:8e:
                    2a:18:6d:30:cd:67:2a:23:6b:37:cf:05:9f:cc:b7:
                    59:58:7f:ba:c4:0a:3f:8c:a4:ad:cb:98:9c:c0:f2:
                    8f:69:67:0f:c1:4e:33:cf:fc:85:5e:bb:5e:cf:93:
                    b0:cf:d9:f4:52:79:87:b1:f8:4d:15:68:65:d5:b7:
                    19:08:63:7f:5e:b1:34:ad:05:8f:5a:f0:e4:e1:8f:
                    25:f2:5c:5c:61:95:b0:56:2d:31:2b:08:65:79:e5:
                    b1:3b:9d:3e:b9:52:4b:ac:5d:c4:58:66:85:8d:81:
                    b3:04:28:f4:3f:2f:ac:92:01:62:d5:fd:8e:0b:da:
                    02:0c:7a:c7:6e:09:1c:ac:1c:b2:4c:d7:54:b8:26:
                    33:b2:5f:14:f3:b1:f9:3d:62:4d:40:99:6b:b6:e7:
                    89:58:97:d6:d4:4d:ea:4b:68:52:f3:3c:a8:b1:35:
                    88:db
                Exponent: 65537 (0x10001)
        X509v3 extensions:
            X509v3 Subject Key Identifier: 
                A1:DF:33:C3:CF:3E:53:41:A7:68:44:CC:AA:19:E1:84:C9:0D:BC:C6
            X509v3 Authority Key Identifier: 
                keyid:B4:11:33:F1:D7:E2:5E:F7:53:9E:20:22:10:4F:86:06:BF:1F:C9:5E
                DirName:/C=AU/O=Dodgy Brothers/CN=Dodgy CA
                serial:0B:E6:AB:2D:A3:68:14:3F:AF:83:2C:67:BA:86:F9:5A:F6:30:99:E1
            X509v3 Basic Constraints: critical
                CA:TRUE, pathlen:1
            X509v3 Key Usage: 
                Certificate Sign, CRL Sign
            X509v3 Issuer Alternative Name: 
                <EMPTY>

    Signature Algorithm: sha1WithRSAEncryption
    Signature Value:
        77:d6:96:e6:92:fb:9c:ea:b9:c8:16:2f:8e:b9:b8:3e:94:59:
        9e:fc:f7:21:e1:c1:bc:48:6d:df:e3:21:f3:2b:c2:73:4d:9a:
        eb:dd:c2:8e:cf:41:af:0c:13:a6:26:81:a2:5b:31:92:6d:ca:
        e3:16:67:ee:6b:08:10:2e:0d:96:db:75:96:8b:57:04:30:1c:
        28:17:21:9f:c1:28:9d:ed:39:31:51:86:84:43:51:99:d4:cf:
        55:9f:96:6f:62:31:a3:d1:f2:57:43:91:37:c2:9a:e8:56:20:
        43:f9:3d:ef:b3:7f:61:43:64:a5:b4:a6:ce:ed:86:79:4e:74:
        14:b9:fd:8a:2a:38:53:29:0a:02:a7:17:3b:b4:61:ab:5e:2c:
        99:da:96:87:56:9f:4b:28:76:93:ab:d0:02:77:ea:5b:2f:37:
        d1:5d:be:f7:5c:02:ee:d3:1c:68:ef:e0:44:eb:15:f1:30:18:
        6f:8d:2f:5d:6a:ac:dc:f6:e0:c4:6d:14:38:d4:19:84:1f:a3:
        9d:a6:a4:72:7c:e3:7e:66:f1:9b:67:d7:fb:74:88:bd:8b:45:
        49:c1:e8:3a:69:9f:af:20:a3:ba:ec:ef:81:e2:a6:1f:64:a7:
        ed:8f:59:cd:5f:05:a5:ff:54:ab:d7:22:d9:5c:da:98:51:fc:
        50:76:95:4a
-----BEGIN CERTIFICATE-----
MIID4zCCAsugAwIBAgIUGyj0diB3CxbXG43pPsG+KjOE9LMwDQYJKoZIhvcNAQEF
BQAwOTELMAkGA1UEBhMCQVUxFzAVBgNVBAoMDkRvZGd5IEJyb3RoZXJzMREwDwYD
VQQDDAhEb2RneSBDQTAeFw0yNTA0MDcxMzE5MzBaFw0yNjA0MDcxMzE5MzBaMFcx
CzAJBgNVBAYTAkFVMRcwFQYDVQQKDA5Eb2RneSBCcm90aGVyczESMBAGA1UEAwwJ
QnJvdGhlciAxMRswGQYDVQQDDBJsYXN0dXBkYXRlX2ludmFsaWQwggEiMA0GCSqG
SIb3DQEBAQUAA4IBDwAwggEKAoIBAQC+lYb6cUxq6lGYUEuZoSxmFfNg8+H/afvO
SAEd/uEsOLDjvY9LSKd+OsZz46u/4dpulvX+w+S0qK28VjTUliV0J8MQ2zUQJRyO
S4Gb+0IEfG894jhsDuQujioYbTDNZyojazfPBZ/Mt1lYf7rECj+MpK3LmJzA8o9p
Zw/BTjPP/IVeu17Pk7DP2fRSeYex+E0VaGXVtxkIY39esTStBY9a8OThjyXyXFxh
lbBWLTErCGV55bE7nT65UkusXcRYZoWNgbMEKPQ/L6ySAWLV/Y4L2gIMesduCRys
HLJM11S4JjOyXxTzsfk9Yk1AmWu254lYl9bUTepLaFLzPKixNYjbAgMBAAGjgcQw
gcEwHQYDVR0OBBYEFKHfM8PPPlNBp2hEzKoZ4YTJDbzGMHQGA1UdIwRtMGuAFLQR
M/HX4l73U54gIhBPhga/H8leoT2kOzA5MQswCQYDVQQGEwJBVTEXMBUGA1UECgwO
RG9kZ3kgQnJvdGhlcnMxETAPBgNVBAMMCERvZGd5IENBghQL5qsto2gUP6+DLGe6
hvla9jCZ4TASBgNVHRMBAf8ECDAGAQH/AgEBMAsGA1UdDwQEAwIBBjAJBgNVHRIE
AjAAMA0GCSqGSIb3DQEBBQUAA4IBAQB31pbmkvuc6rnIFi+Oubg+lFme/Pch4cG8
SG3f4yHzK8JzTZrr3cKOz0GvDBOmJoGiWzGSbcrjFmfuawgQLg2W23WWi1cEMBwo
FyGfwSid7TkxUYaEQ1GZ1M9Vn5ZvYjGj0fJXQ5E3wproViBD+T3vs39hQ2SltKbO
7YZ5TnQUuf2KKjhTKQoCpxc7tGGrXiyZ2paHVp9LKHaTq9ACd+pbLzfRXb73XALu
0xxo7+BE6xXxMBhvjS9daqzc9uDEbRQ41BmEH6OdpqRyfON+ZvGbZ9f7dIi9i0VJ
weg6aZ+vIKO67O+B4qYfZKftj1nNXwWl/1Sr1yLZXNqYUfxQdpVK
-----END CERTIFICATE-----
