Certificate:
    Data:
        Version: 3 (0x2)
        Serial Number:
            1b:28:f4:76:20:77:0b:16:d7:1b:8d:e9:3e:c1:be:2a:33:84:f4:b6
        Signature Algorithm: sha1WithRSAEncryption
        Issuer: C=AU, O=Dodgy Brothers, CN=Dodgy CA
        Validity
            Not Before: Apr  7 13:19:30 2025 GMT
            Not After : Apr  7 13:19:30 2026 GMT
        Subject: C=AU, O=Dodgy Brothers, CN=Brother 1, CN=nextupdate_invalid
        Subject Public Key Info:
            Public Key Algorithm: rsaEncryption
                Public-Key: (2048 bit)
                Modulus:
                    00:be:95:86:fa:71:4c:6a:ea:51:98:50:4b:99:a1:
                    2c:66:15:f3:60:f3:e1:ff:69:fb:ce:48:01:1d:fe:
                    e1:2c:38:b0:e3:bd:8f:4b:48:a7:7e:3a:c6:73:e3:
                    ab:bf:e1:da:6e:96:f5:fe:c3:e4:b4:a8:ad:bc:56:
                    34:d4:96:25:74:27:c3:10:db:35:10:25:1c:8e:4b:
                    81:9b:fb:42:04:7c:6f:3d:e2:38:6c:0e:e4:2e:8e:
                    2a:18:6d:30:cd:67:2a:23:6b:37:cf:05:9f:cc:b7:
                    59:58:7f:ba:c4:0a:3f:8c:a4:ad:cb:98:9c:c0:f2:
                    8f:69:67:0f:c1:4e:33:cf:fc:85:5e:bb:5e:cf:93:
                    b0:cf:d9:f4:52:79:87:b1:f8:4d:15:68:65:d5:b7:
                    19:08:63:7f:5e:b1:34:ad:05:8f:5a:f0:e4:e1:8f:
                    25:f2:5c:5c:61:95:b0:56:2d:31:2b:08:65:79:e5:
                    b1:3b:9d:3e:b9:52:4b:ac:5d:c4:58:66:85:8d:81:
                    b3:04:28:f4:3f:2f:ac:92:01:62:d5:fd:8e:0b:da:
                    02:0c:7a:c7:6e:09:1c:ac:1c:b2:4c:d7:54:b8:26:
                    33:b2:5f:14:f3:b1:f9:3d:62:4d:40:99:6b:b6:e7:
                    89:58:97:d6:d4:4d:ea:4b:68:52:f3:3c:a8:b1:35:
                    88:db
                Exponent: 65537 (0x10001)
        X509v3 extensions:
            X509v3 Subject Key Identifier: 
                A1:DF:33:C3:CF:3E:53:41:A7:68:44:CC:AA:19:E1:84:C9:0D:BC:C6
            X509v3 Authority Key Identifier: 
                keyid:B4:11:33:F1:D7:E2:5E:F7:53:9E:20:22:10:4F:86:06:BF:1F:C9:5E
                DirName:/C=AU/O=Dodgy Brothers/CN=Dodgy CA
                serial:0B:E6:AB:2D:A3:68:14:3F:AF:83:2C:67:BA:86:F9:5A:F6:30:99:E1
            X509v3 Basic Constraints: critical
                CA:TRUE, pathlen:1
            X509v3 Key Usage: 
                Certificate Sign, CRL Sign
            X509v3 Issuer Alternative Name: 
                <EMPTY>

    Signature Algorithm: sha1WithRSAEncryption
    Signature Value:
        24:8b:15:25:2a:b5:1b:b7:23:02:79:fa:72:a5:4e:db:6f:65:
        ab:f1:8f:6d:ff:87:6e:4f:d6:4c:6d:9e:de:ea:09:2d:d9:ce:
        2c:7a:fc:7d:2e:b5:0e:a0:55:71:a6:1e:54:b5:44:f7:32:8f:
        4f:e0:42:1d:e2:ec:f1:52:41:07:ad:77:79:bf:d2:5a:d1:42:
        cb:0c:16:1d:51:13:66:0c:1b:bf:1b:d6:ed:c9:c4:3f:19:47:
        39:5b:e7:8b:73:14:32:1b:45:5f:0a:1c:48:9f:fb:41:7d:97:
        30:af:47:e4:ae:70:6b:c9:09:5e:28:10:9c:8b:77:de:58:91:
        cc:ec:7a:0d:3e:df:ad:c2:ec:c1:ce:ce:c7:b4:96:1f:ca:73:
        88:2d:cc:cd:fe:dd:f5:f5:7e:02:bd:9b:03:17:3b:d9:6d:d4:
        ea:a1:1f:a8:24:29:87:e0:86:c3:6d:5f:24:ff:a9:3a:78:1f:
        6f:3e:61:e8:1b:78:06:0f:fb:5f:f6:26:0e:ff:86:24:8f:8b:
        77:ba:ad:50:56:81:af:a9:1e:12:fa:49:38:ce:c6:c2:24:2f:
        40:09:f4:5f:0e:6e:a7:1b:56:33:bc:7d:53:25:47:77:27:40:
        29:71:8a:ff:ac:92:d9:32:1c:5b:46:3f:a3:8a:f7:7e:b4:0a:
        79:14:49:fb
-----BEGIN CERTIFICATE-----
MIID4zCCAsugAwIBAgIUGyj0diB3CxbXG43pPsG+KjOE9LYwDQYJKoZIhvcNAQEF
BQAwOTELMAkGA1UEBhMCQVUxFzAVBgNVBAoMDkRvZGd5IEJyb3RoZXJzMREwDwYD
VQQDDAhEb2RneSBDQTAeFw0yNTA0MDcxMzE5MzBaFw0yNjA0MDcxMzE5MzBaMFcx
CzAJBgNVBAYTAkFVMRcwFQYDVQQKDA5Eb2RneSBCcm90aGVyczESMBAGA1UEAwwJ
QnJvdGhlciAxMRswGQYDVQQDDBJuZXh0dXBkYXRlX2ludmFsaWQwggEiMA0GCSqG
SIb3DQEBAQUAA4IBDwAwggEKAoIBAQC+lYb6cUxq6lGYUEuZoSxmFfNg8+H/afvO
SAEd/uEsOLDjvY9LSKd+OsZz46u/4dpulvX+w+S0qK28VjTUliV0J8MQ2zUQJRyO
S4Gb+0IEfG894jhsDuQujioYbTDNZyojazfPBZ/Mt1lYf7rECj+MpK3LmJzA8o9p
Zw/BTjPP/IVeu17Pk7DP2fRSeYex+E0VaGXVtxkIY39esTStBY9a8OThjyXyXFxh
lbBWLTErCGV55bE7nT65UkusXcRYZoWNgbMEKPQ/L6ySAWLV/Y4L2gIMesduCRys
HLJM11S4JjOyXxTzsfk9Yk1AmWu254lYl9bUTepLaFLzPKixNYjbAgMBAAGjgcQw
gcEwHQYDVR0OBBYEFKHfM8PPPlNBp2hEzKoZ4YTJDbzGMHQGA1UdIwRtMGuAFLQR
M/HX4l73U54gIhBPhga/H8leoT2kOzA5MQswCQYDVQQGEwJBVTEXMBUGA1UECgwO
RG9kZ3kgQnJvdGhlcnMxETAPBgNVBAMMCERvZGd5IENBghQL5qsto2gUP6+DLGe6
hvla9jCZ4TASBgNVHRMBAf8ECDAGAQH/AgEBMAsGA1UdDwQEAwIBBjAJBgNVHRIE
AjAAMA0GCSqGSIb3DQEBBQUAA4IBAQAkixUlKrUbtyMCefpypU7bb2Wr8Y9t/4du
T9ZMbZ7e6gkt2c4sevx9LrUOoFVxph5UtUT3Mo9P4EId4uzxUkEHrXd5v9Ja0ULL
DBYdURNmDBu/G9btycQ/GUc5W+eLcxQyG0VfChxIn/tBfZcwr0fkrnBryQleKBCc
i3feWJHM7HoNPt+twuzBzs7HtJYfynOILczN/t319X4CvZsDFzvZbdTqoR+oJCmH
4IbDbV8k/6k6eB9vPmHoG3gGD/tf9iYO/4Ykj4t3uq1QVoGvqR4S+kk4zsbCJC9A
CfRfDm6nG1YzvH1TJUd3J0ApcYr/rJLZMhxbRj+jivd+tAp5FEn7
-----END CERTIFICATE-----
