Certificate:
    Data:
        Version: 3 (0x2)
        Serial Number:
            1b:28:f4:76:20:77:0b:16:d7:1b:8d:e9:3e:c1:be:2a:33:84:f4:b9
        Signature Algorithm: sha1WithRSAEncryption
        Issuer: C=AU, O=Dodgy Brothers, CN=Dodgy CA
        Validity
            Not Before: Apr  7 13:19:31 2025 GMT
            Not After : Apr  7 13:19:31 2026 GMT
        Subject: C=AU, O=Dodgy Brothers, CN=Brother 1, CN=both_utctime
        Subject Public Key Info:
            Public Key Algorithm: rsaEncryption
                Public-Key: (2048 bit)
                Modulus:
                    00:be:95:86:fa:71:4c:6a:ea:51:98:50:4b:99:a1:
                    2c:66:15:f3:60:f3:e1:ff:69:fb:ce:48:01:1d:fe:
                    e1:2c:38:b0:e3:bd:8f:4b:48:a7:7e:3a:c6:73:e3:
                    ab:bf:e1:da:6e:96:f5:fe:c3:e4:b4:a8:ad:bc:56:
                    34:d4:96:25:74:27:c3:10:db:35:10:25:1c:8e:4b:
                    81:9b:fb:42:04:7c:6f:3d:e2:38:6c:0e:e4:2e:8e:
                    2a:18:6d:30:cd:67:2a:23:6b:37:cf:05:9f:cc:b7:
                    59:58:7f:ba:c4:0a:3f:8c:a4:ad:cb:98:9c:c0:f2:
                    8f:69:67:0f:c1:4e:33:cf:fc:85:5e:bb:5e:cf:93:
                    b0:cf:d9:f4:52:79:87:b1:f8:4d:15:68:65:d5:b7:
                    19:08:63:7f:5e:b1:34:ad:05:8f:5a:f0:e4:e1:8f:
                    25:f2:5c:5c:61:95:b0:56:2d:31:2b:08:65:79:e5:
                    b1:3b:9d:3e:b9:52:4b:ac:5d:c4:58:66:85:8d:81:
                    b3:04:28:f4:3f:2f:ac:92:01:62:d5:fd:8e:0b:da:
                    02:0c:7a:c7:6e:09:1c:ac:1c:b2:4c:d7:54:b8:26:
                    33:b2:5f:14:f3:b1:f9:3d:62:4d:40:99:6b:b6:e7:
                    89:58:97:d6:d4:4d:ea:4b:68:52:f3:3c:a8:b1:35:
                    88:db
                Exponent: 65537 (0x10001)
        X509v3 extensions:
            X509v3 Subject Key Identifier: 
                A1:DF:33:C3:CF:3E:53:41:A7:68:44:CC:AA:19:E1:84:C9:0D:BC:C6
            X509v3 Authority Key Identifier: 
                keyid:B4:11:33:F1:D7:E2:5E:F7:53:9E:20:22:10:4F:86:06:BF:1F:C9:5E
                DirName:/C=AU/O=Dodgy Brothers/CN=Dodgy CA
                serial:0B:E6:AB:2D:A3:68:14:3F:AF:83:2C:67:BA:86:F9:5A:F6:30:99:E1
            X509v3 Basic Constraints: critical
                CA:TRUE, pathlen:1
            X509v3 Key Usage: 
                Certificate Sign, CRL Sign
            X509v3 Issuer Alternative Name: 
                <EMPTY>

    Signature Algorithm: sha1WithRSAEncryption
    Signature Value:
        13:75:91:4c:72:13:12:dc:26:17:83:ac:9a:ad:4c:1c:8c:9a:
        cd:9c:2d:46:e2:47:77:07:22:6e:77:3b:45:14:79:8e:59:3f:
        85:8c:ec:a9:85:c8:06:5f:29:fc:93:02:bc:75:27:91:b2:78:
        32:b5:20:88:0e:98:3e:e9:b0:b8:db:03:ac:85:9d:b4:75:ff:
        5d:c9:f8:fb:98:f3:fd:01:7a:ac:43:59:2d:46:01:7b:29:f5:
        4d:63:70:a8:e3:de:0f:d1:e0:1d:1a:11:10:a3:37:7b:5b:7d:
        23:31:0b:f4:11:04:bc:e3:6f:4f:72:1c:d7:46:09:ba:78:d0:
        2c:c1:36:36:63:f3:76:be:07:bf:2b:34:06:34:38:1d:51:27:
        31:21:d5:1c:5b:dc:ef:1a:4f:7c:8f:39:94:fd:07:94:cb:91:
        60:a8:73:96:5a:be:77:39:8b:2d:21:f7:84:bb:0c:35:ef:62:
        52:48:7a:16:1d:92:d5:2a:fb:cf:4d:8a:c0:19:70:e6:66:7b:
        b9:88:c0:78:71:05:cd:91:39:bd:c2:cd:8f:46:49:39:0c:03:
        65:bf:4d:45:f2:19:c0:11:cb:3d:94:a3:66:6b:5f:ef:9a:7f:
        d4:2e:c2:2b:0f:6b:cc:df:ff:ef:7e:9f:60:b4:83:ee:48:f8:
        f7:bc:d8:75
-----BEGIN CERTIFICATE-----
MIID3TCCAsWgAwIBAgIUGyj0diB3CxbXG43pPsG+KjOE9LkwDQYJKoZIhvcNAQEF
BQAwOTELMAkGA1UEBhMCQVUxFzAVBgNVBAoMDkRvZGd5IEJyb3RoZXJzMREwDwYD
VQQDDAhEb2RneSBDQTAeFw0yNTA0MDcxMzE5MzFaFw0yNjA0MDcxMzE5MzFaMFEx
CzAJBgNVBAYTAkFVMRcwFQYDVQQKDA5Eb2RneSBCcm90aGVyczESMBAGA1UEAwwJ
QnJvdGhlciAxMRUwEwYDVQQDDAxib3RoX3V0Y3RpbWUwggEiMA0GCSqGSIb3DQEB
AQUAA4IBDwAwggEKAoIBAQC+lYb6cUxq6lGYUEuZoSxmFfNg8+H/afvOSAEd/uEs
OLDjvY9LSKd+OsZz46u/4dpulvX+w+S0qK28VjTUliV0J8MQ2zUQJRyOS4Gb+0IE
fG894jhsDuQujioYbTDNZyojazfPBZ/Mt1lYf7rECj+MpK3LmJzA8o9pZw/BTjPP
/IVeu17Pk7DP2fRSeYex+E0VaGXVtxkIY39esTStBY9a8OThjyXyXFxhlbBWLTEr
CGV55bE7nT65UkusXcRYZoWNgbMEKPQ/L6ySAWLV/Y4L2gIMesduCRysHLJM11S4
JjOyXxTzsfk9Yk1AmWu254lYl9bUTepLaFLzPKixNYjbAgMBAAGjgcQwgcEwHQYD
VR0OBBYEFKHfM8PPPlNBp2hEzKoZ4YTJDbzGMHQGA1UdIwRtMGuAFLQRM/HX4l73
U54gIhBPhga/H8leoT2kOzA5MQswCQYDVQQGEwJBVTEXMBUGA1UECgwORG9kZ3kg
QnJvdGhlcnMxETAPBgNVBAMMCERvZGd5IENBghQL5qsto2gUP6+DLGe6hvla9jCZ
4TASBgNVHRMBAf8ECDAGAQH/AgEBMAsGA1UdDwQEAwIBBjAJBgNVHRIEAjAAMA0G
CSqGSIb3DQEBBQUAA4IBAQATdZFMchMS3CYXg6yarUwcjJrNnC1G4kd3ByJudztF
FHmOWT+FjOyphcgGXyn8kwK8dSeRsngytSCIDpg+6bC42wOshZ20df9dyfj7mPP9
AXqsQ1ktRgF7KfVNY3Co494P0eAdGhEQozd7W30jMQv0EQS8429PchzXRgm6eNAs
wTY2Y/N2vge/KzQGNDgdUScxIdUcW9zvGk98jzmU/QeUy5FgqHOWWr53OYstIfeE
uww172JSSHoWHZLVKvvPTYrAGXDmZnu5iMB4cQXNkTm9ws2PRkk5DANlv01F8hnA
Ecs9lKNma1/vmn/ULsIrD2vM3//vfp9gtIPuSPj3vNh1
-----END CERTIFICATE-----
