Certificate:
    Data:
        Version: 3 (0x2)
        Serial Number:
            1b:28:f4:76:20:77:0b:16:d7:1b:8d:e9:3e:c1:be:2a:33:84:f4:b2
        Signature Algorithm: sha1WithRSAEncryption
        Issuer: C=AU, O=Dodgy Brothers, CN=Dodgy CA
        Validity
            Not Before: Apr  7 13:19:30 2025 GMT
            Not After : Apr  7 13:19:30 2026 GMT
        Subject: C=AU, O=Dodgy Brothers, CN=Brother 1, CN=notimes
        Subject Public Key Info:
            Public Key Algorithm: rsaEncryption
                Public-Key: (2048 bit)
                Modulus:
                    00:be:95:86:fa:71:4c:6a:ea:51:98:50:4b:99:a1:
                    2c:66:15:f3:60:f3:e1:ff:69:fb:ce:48:01:1d:fe:
                    e1:2c:38:b0:e3:bd:8f:4b:48:a7:7e:3a:c6:73:e3:
                    ab:bf:e1:da:6e:96:f5:fe:c3:e4:b4:a8:ad:bc:56:
                    34:d4:96:25:74:27:c3:10:db:35:10:25:1c:8e:4b:
                    81:9b:fb:42:04:7c:6f:3d:e2:38:6c:0e:e4:2e:8e:
                    2a:18:6d:30:cd:67:2a:23:6b:37:cf:05:9f:cc:b7:
                    59:58:7f:ba:c4:0a:3f:8c:a4:ad:cb:98:9c:c0:f2:
                    8f:69:67:0f:c1:4e:33:cf:fc:85:5e:bb:5e:cf:93:
                    b0:cf:d9:f4:52:79:87:b1:f8:4d:15:68:65:d5:b7:
                    19:08:63:7f:5e:b1:34:ad:05:8f:5a:f0:e4:e1:8f:
                    25:f2:5c:5c:61:95:b0:56:2d:31:2b:08:65:79:e5:
                    b1:3b:9d:3e:b9:52:4b:ac:5d:c4:58:66:85:8d:81:
                    b3:04:28:f4:3f:2f:ac:92:01:62:d5:fd:8e:0b:da:
                    02:0c:7a:c7:6e:09:1c:ac:1c:b2:4c:d7:54:b8:26:
                    33:b2:5f:14:f3:b1:f9:3d:62:4d:40:99:6b:b6:e7:
                    89:58:97:d6:d4:4d:ea:4b:68:52:f3:3c:a8:b1:35:
                    88:db
                Exponent: 65537 (0x10001)
        X509v3 extensions:
            X509v3 Subject Key Identifier: 
                A1:DF:33:C3:CF:3E:53:41:A7:68:44:CC:AA:19:E1:84:C9:0D:BC:C6
            X509v3 Authority Key Identifier: 
                keyid:B4:11:33:F1:D7:E2:5E:F7:53:9E:20:22:10:4F:86:06:BF:1F:C9:5E
                DirName:/C=AU/O=Dodgy Brothers/CN=Dodgy CA
                serial:0B:E6:AB:2D:A3:68:14:3F:AF:83:2C:67:BA:86:F9:5A:F6:30:99:E1
            X509v3 Basic Constraints: critical
                CA:TRUE, pathlen:1
            X509v3 Key Usage: 
                Certificate Sign, CRL Sign
            X509v3 Issuer Alternative Name: 
                <EMPTY>

    Signature Algorithm: sha1WithRSAEncryption
    Signature Value:
        12:c9:06:f0:27:5d:d2:1a:c4:33:ab:3a:6d:4f:7f:dc:0c:71:
        6a:a3:41:08:a6:d4:14:1d:2f:24:5f:25:ad:36:bd:04:0c:cb:
        46:b2:a2:5a:97:38:0e:a1:ba:46:c3:0b:90:5f:10:cf:8a:f0:
        6f:d0:7f:a9:39:7f:96:cc:90:c8:c8:2f:a9:41:ad:64:4a:ab:
        85:f3:e7:11:a2:9c:59:1c:fb:da:33:53:b3:e8:8d:49:42:54:
        21:b1:e5:12:f5:b4:33:6d:b7:e3:79:ca:97:de:86:02:24:02:
        f8:1e:fb:d1:18:70:72:a9:bf:16:95:fd:57:2d:4b:f7:b7:ba:
        81:6a:b3:74:46:30:fe:6a:7d:1b:50:02:51:1c:bd:ef:c3:ea:
        28:ed:08:da:66:e5:a9:0b:81:2f:bd:39:48:2f:0d:91:48:3f:
        7c:c2:89:e4:c9:ed:e0:41:0c:39:b2:8d:ab:83:0c:6e:0d:ad:
        e3:4e:5d:35:b3:48:3f:eb:ea:1b:4e:f3:c5:0e:d1:73:74:34:
        13:9b:c7:33:32:b5:7b:fd:7a:59:9d:2c:bb:25:5c:4c:84:c4:
        45:83:7b:6d:9b:64:5c:19:3b:33:44:1a:d5:7a:d0:76:d0:7e:
        21:4f:5a:b0:61:e3:de:9d:2a:f7:05:b0:90:9a:a9:65:6a:94:
        64:6d:30:07
-----BEGIN CERTIFICATE-----
MIID2DCCAsCgAwIBAgIUGyj0diB3CxbXG43pPsG+KjOE9LIwDQYJKoZIhvcNAQEF
BQAwOTELMAkGA1UEBhMCQVUxFzAVBgNVBAoMDkRvZGd5IEJyb3RoZXJzMREwDwYD
VQQDDAhEb2RneSBDQTAeFw0yNTA0MDcxMzE5MzBaFw0yNjA0MDcxMzE5MzBaMEwx
CzAJBgNVBAYTAkFVMRcwFQYDVQQKDA5Eb2RneSBCcm90aGVyczESMBAGA1UEAwwJ
QnJvdGhlciAxMRAwDgYDVQQDDAdub3RpbWVzMIIBIjANBgkqhkiG9w0BAQEFAAOC
AQ8AMIIBCgKCAQEAvpWG+nFMaupRmFBLmaEsZhXzYPPh/2n7zkgBHf7hLDiw472P
S0infjrGc+Orv+Habpb1/sPktKitvFY01JYldCfDENs1ECUcjkuBm/tCBHxvPeI4
bA7kLo4qGG0wzWcqI2s3zwWfzLdZWH+6xAo/jKSty5icwPKPaWcPwU4zz/yFXrte
z5Owz9n0UnmHsfhNFWhl1bcZCGN/XrE0rQWPWvDk4Y8l8lxcYZWwVi0xKwhleeWx
O50+uVJLrF3EWGaFjYGzBCj0Py+skgFi1f2OC9oCDHrHbgkcrByyTNdUuCYzsl8U
87H5PWJNQJlrtueJWJfW1E3qS2hS8zyosTWI2wIDAQABo4HEMIHBMB0GA1UdDgQW
BBSh3zPDzz5TQadoRMyqGeGEyQ28xjB0BgNVHSMEbTBrgBS0ETPx1+Je91OeICIQ
T4YGvx/JXqE9pDswOTELMAkGA1UEBhMCQVUxFzAVBgNVBAoMDkRvZGd5IEJyb3Ro
ZXJzMREwDwYDVQQDDAhEb2RneSBDQYIUC+arLaNoFD+vgyxnuob5WvYwmeEwEgYD
VR0TAQH/BAgwBgEB/wIBATALBgNVHQ8EBAMCAQYwCQYDVR0SBAIwADANBgkqhkiG
9w0BAQUFAAOCAQEAEskG8Cdd0hrEM6s6bU9/3AxxaqNBCKbUFB0vJF8lrTa9BAzL
RrKiWpc4DqG6RsMLkF8Qz4rwb9B/qTl/lsyQyMgvqUGtZEqrhfPnEaKcWRz72jNT
s+iNSUJUIbHlEvW0M22343nKl96GAiQC+B770Rhwcqm/FpX9Vy1L97e6gWqzdEYw
/mp9G1ACURy978PqKO0I2mblqQuBL705SC8NkUg/fMKJ5Mnt4EEMObKNq4MMbg2t
405dNbNIP+vqG07zxQ7Rc3Q0E5vHMzK1e/16WZ0suyVcTITERYN7bZtkXBk7M0Qa
1XrQdtB+IU9asGHj3p0q9wWwkJqpZWqUZG0wBw==
-----END CERTIFICATE-----
