Certificate:
    Data:
        Version: 3 (0x2)
        Serial Number:
            1b:28:f4:76:20:77:0b:16:d7:1b:8d:e9:3e:c1:be:2a:33:84:f4:b8
        Signature Algorithm: sha1WithRSAEncryption
        Issuer: C=AU, O=Dodgy Brothers, CN=Dodgy CA
        Validity
            Not Before: Apr  7 13:19:30 2025 GMT
            Not After : Apr  7 13:19:30 2026 GMT
        Subject: C=AU, O=Dodgy Brothers, CN=Brother 1, CN=nextupdate_generalizedtime
        Subject Public Key Info:
            Public Key Algorithm: rsaEncryption
                Public-Key: (2048 bit)
                Modulus:
                    00:be:95:86:fa:71:4c:6a:ea:51:98:50:4b:99:a1:
                    2c:66:15:f3:60:f3:e1:ff:69:fb:ce:48:01:1d:fe:
                    e1:2c:38:b0:e3:bd:8f:4b:48:a7:7e:3a:c6:73:e3:
                    ab:bf:e1:da:6e:96:f5:fe:c3:e4:b4:a8:ad:bc:56:
                    34:d4:96:25:74:27:c3:10:db:35:10:25:1c:8e:4b:
                    81:9b:fb:42:04:7c:6f:3d:e2:38:6c:0e:e4:2e:8e:
                    2a:18:6d:30:cd:67:2a:23:6b:37:cf:05:9f:cc:b7:
                    59:58:7f:ba:c4:0a:3f:8c:a4:ad:cb:98:9c:c0:f2:
                    8f:69:67:0f:c1:4e:33:cf:fc:85:5e:bb:5e:cf:93:
                    b0:cf:d9:f4:52:79:87:b1:f8:4d:15:68:65:d5:b7:
                    19:08:63:7f:5e:b1:34:ad:05:8f:5a:f0:e4:e1:8f:
                    25:f2:5c:5c:61:95:b0:56:2d:31:2b:08:65:79:e5:
                    b1:3b:9d:3e:b9:52:4b:ac:5d:c4:58:66:85:8d:81:
                    b3:04:28:f4:3f:2f:ac:92:01:62:d5:fd:8e:0b:da:
                    02:0c:7a:c7:6e:09:1c:ac:1c:b2:4c:d7:54:b8:26:
                    33:b2:5f:14:f3:b1:f9:3d:62:4d:40:99:6b:b6:e7:
                    89:58:97:d6:d4:4d:ea:4b:68:52:f3:3c:a8:b1:35:
                    88:db
                Exponent: 65537 (0x10001)
        X509v3 extensions:
            X509v3 Subject Key Identifier: 
                A1:DF:33:C3:CF:3E:53:41:A7:68:44:CC:AA:19:E1:84:C9:0D:BC:C6
            X509v3 Authority Key Identifier: 
                keyid:B4:11:33:F1:D7:E2:5E:F7:53:9E:20:22:10:4F:86:06:BF:1F:C9:5E
                DirName:/C=AU/O=Dodgy Brothers/CN=Dodgy CA
                serial:0B:E6:AB:2D:A3:68:14:3F:AF:83:2C:67:BA:86:F9:5A:F6:30:99:E1
            X509v3 Basic Constraints: critical
                CA:TRUE, pathlen:1
            X509v3 Key Usage: 
                Certificate Sign, CRL Sign
            X509v3 Issuer Alternative Name: 
                <EMPTY>

    Signature Algorithm: sha1WithRSAEncryption
    Signature Value:
        0d:0e:ea:8d:f6:8f:c4:15:c8:ab:30:60:9b:b7:41:4a:a5:37:
        4e:9c:69:80:fd:30:a1:70:0d:b7:51:00:97:76:4b:24:c2:f4:
        ab:13:f5:15:de:17:e2:6d:3b:6d:50:df:ea:46:71:5d:6f:3a:
        f9:ed:e3:bc:72:1f:12:b1:0e:49:e3:33:f9:29:3b:a6:9d:f9:
        87:f5:72:09:df:2b:d0:68:88:42:1d:0a:d6:e8:56:cb:ef:7a:
        57:aa:ff:fe:70:a1:b5:03:e9:14:96:61:0f:c7:24:e1:df:5d:
        43:cd:3a:bf:54:b7:5d:31:f5:3b:7b:cd:e5:80:5b:24:c0:74:
        73:17:53:5b:57:05:d7:37:d9:14:f5:c4:95:6b:27:ed:0c:41:
        53:58:b9:95:3f:22:6e:24:f7:1b:8a:28:04:40:93:13:16:df:
        e7:6b:24:4a:44:aa:98:81:ed:9c:cc:24:bc:e5:bf:7b:4f:b7:
        b5:08:ef:80:e4:d8:f8:b5:cb:ad:12:19:aa:e0:aa:82:18:25:
        e5:75:02:b4:44:c6:01:03:40:33:02:1e:fa:66:5f:76:54:04:
        5b:24:a5:0f:b3:f6:f9:61:9f:26:49:0b:d3:f5:f8:38:15:4d:
        12:e7:3b:b2:d4:31:eb:d7:aa:ea:fb:30:a2:0a:98:4a:6c:36:
        fb:e9:54:4a
-----BEGIN CERTIFICATE-----
MIID6zCCAtOgAwIBAgIUGyj0diB3CxbXG43pPsG+KjOE9LgwDQYJKoZIhvcNAQEF
BQAwOTELMAkGA1UEBhMCQVUxFzAVBgNVBAoMDkRvZGd5IEJyb3RoZXJzMREwDwYD
VQQDDAhEb2RneSBDQTAeFw0yNTA0MDcxMzE5MzBaFw0yNjA0MDcxMzE5MzBaMF8x
CzAJBgNVBAYTAkFVMRcwFQYDVQQKDA5Eb2RneSBCcm90aGVyczESMBAGA1UEAwwJ
QnJvdGhlciAxMSMwIQYDVQQDDBpuZXh0dXBkYXRlX2dlbmVyYWxpemVkdGltZTCC
ASIwDQYJKoZIhvcNAQEBBQADggEPADCCAQoCggEBAL6VhvpxTGrqUZhQS5mhLGYV
82Dz4f9p+85IAR3+4Sw4sOO9j0tIp346xnPjq7/h2m6W9f7D5LSorbxWNNSWJXQn
wxDbNRAlHI5LgZv7QgR8bz3iOGwO5C6OKhhtMM1nKiNrN88Fn8y3WVh/usQKP4yk
rcuYnMDyj2lnD8FOM8/8hV67Xs+TsM/Z9FJ5h7H4TRVoZdW3GQhjf16xNK0Fj1rw
5OGPJfJcXGGVsFYtMSsIZXnlsTudPrlSS6xdxFhmhY2BswQo9D8vrJIBYtX9jgva
Agx6x24JHKwcskzXVLgmM7JfFPOx+T1iTUCZa7bniViX1tRN6ktoUvM8qLE1iNsC
AwEAAaOBxDCBwTAdBgNVHQ4EFgQUod8zw88+U0GnaETMqhnhhMkNvMYwdAYDVR0j
BG0wa4AUtBEz8dfiXvdTniAiEE+GBr8fyV6hPaQ7MDkxCzAJBgNVBAYTAkFVMRcw
FQYDVQQKDA5Eb2RneSBCcm90aGVyczERMA8GA1UEAwwIRG9kZ3kgQ0GCFAvmqy2j
aBQ/r4MsZ7qG+Vr2MJnhMBIGA1UdEwEB/wQIMAYBAf8CAQEwCwYDVR0PBAQDAgEG
MAkGA1UdEgQCMAAwDQYJKoZIhvcNAQEFBQADggEBAA0O6o32j8QVyKswYJu3QUql
N06caYD9MKFwDbdRAJd2SyTC9KsT9RXeF+JtO21Q3+pGcV1vOvnt47xyHxKxDknj
M/kpO6ad+Yf1cgnfK9BoiEIdCtboVsvveleq//5wobUD6RSWYQ/HJOHfXUPNOr9U
t10x9Tt7zeWAWyTAdHMXU1tXBdc32RT1xJVrJ+0MQVNYuZU/Im4k9xuKKARAkxMW
3+drJEpEqpiB7ZzMJLzlv3tPt7UI74Dk2Pi1y60SGargqoIYJeV1ArRExgEDQDMC
HvpmX3ZUBFskpQ+z9vlhnyZJC9P1+DgVTRLnO7LUMevXqur7MKIKmEpsNvvpVEo=
-----END CERTIFICATE-----
