Certificate:
    Data:
        Version: 3 (0x2)
        Serial Number:
            1b:28:f4:76:20:77:0b:16:d7:1b:8d:e9:3e:c1:be:2a:33:84:f4:b4
        Signature Algorithm: sha1WithRSAEncryption
        Issuer: C=AU, O=Dodgy Brothers, CN=Dodgy CA
        Validity
            Not Before: Apr  7 13:19:30 2025 GMT
            Not After : Apr  7 13:19:30 2026 GMT
        Subject: C=AU, O=Dodgy Brothers, CN=Brother 1, CN=lastupdate_utctime
        Subject Public Key Info:
            Public Key Algorithm: rsaEncryption
                Public-Key: (2048 bit)
                Modulus:
                    00:be:95:86:fa:71:4c:6a:ea:51:98:50:4b:99:a1:
                    2c:66:15:f3:60:f3:e1:ff:69:fb:ce:48:01:1d:fe:
                    e1:2c:38:b0:e3:bd:8f:4b:48:a7:7e:3a:c6:73:e3:
                    ab:bf:e1:da:6e:96:f5:fe:c3:e4:b4:a8:ad:bc:56:
                    34:d4:96:25:74:27:c3:10:db:35:10:25:1c:8e:4b:
                    81:9b:fb:42:04:7c:6f:3d:e2:38:6c:0e:e4:2e:8e:
                    2a:18:6d:30:cd:67:2a:23:6b:37:cf:05:9f:cc:b7:
                    59:58:7f:ba:c4:0a:3f:8c:a4:ad:cb:98:9c:c0:f2:
                    8f:69:67:0f:c1:4e:33:cf:fc:85:5e:bb:5e:cf:93:
                    b0:cf:d9:f4:52:79:87:b1:f8:4d:15:68:65:d5:b7:
                    19:08:63:7f:5e:b1:34:ad:05:8f:5a:f0:e4:e1:8f:
                    25:f2:5c:5c:61:95:b0:56:2d:31:2b:08:65:79:e5:
                    b1:3b:9d:3e:b9:52:4b:ac:5d:c4:58:66:85:8d:81:
                    b3:04:28:f4:3f:2f:ac:92:01:62:d5:fd:8e:0b:da:
                    02:0c:7a:c7:6e:09:1c:ac:1c:b2:4c:d7:54:b8:26:
                    33:b2:5f:14:f3:b1:f9:3d:62:4d:40:99:6b:b6:e7:
                    89:58:97:d6:d4:4d:ea:4b:68:52:f3:3c:a8:b1:35:
                    88:db
                Exponent: 65537 (0x10001)
        X509v3 extensions:
            X509v3 Subject Key Identifier: 
                A1:DF:33:C3:CF:3E:53:41:A7:68:44:CC:AA:19:E1:84:C9:0D:BC:C6
            X509v3 Authority Key Identifier: 
                keyid:B4:11:33:F1:D7:E2:5E:F7:53:9E:20:22:10:4F:86:06:BF:1F:C9:5E
                DirName:/C=AU/O=Dodgy Brothers/CN=Dodgy CA
                serial:0B:E6:AB:2D:A3:68:14:3F:AF:83:2C:67:BA:86:F9:5A:F6:30:99:E1
            X509v3 Basic Constraints: critical
                CA:TRUE, pathlen:1
            X509v3 Key Usage: 
                Certificate Sign, CRL Sign
            X509v3 Issuer Alternative Name: 
                <EMPTY>

    Signature Algorithm: sha1WithRSAEncryption
    Signature Value:
        84:1f:ed:9a:9d:01:02:2a:17:63:2d:e5:ca:68:59:b6:d6:87:
        d8:37:4e:c3:97:76:d4:e6:73:08:b7:cc:82:a4:71:ea:73:18:
        66:1d:49:d7:a8:a5:b0:70:ff:2c:c7:83:de:3b:49:b4:f7:a1:
        29:9e:97:aa:2c:c4:c8:50:39:87:39:42:35:f3:96:79:17:67:
        be:c9:a7:18:03:08:c5:20:42:91:c5:db:7e:62:63:3f:f5:8c:
        db:6d:ff:33:28:96:28:e3:01:ce:e5:5e:0a:39:9f:de:bb:80:
        45:aa:27:72:15:b5:29:43:e7:c1:e6:8b:81:a6:d9:34:51:8a:
        e3:fa:3a:41:78:2a:36:8f:31:62:10:88:d5:59:62:15:e3:22:
        57:e6:da:41:43:52:d2:53:92:91:84:06:d6:d6:7c:6e:56:ed:
        04:95:65:3b:de:6b:56:06:45:c3:5e:f5:3f:a3:6a:85:89:a2:
        fd:dd:49:3b:d7:52:1a:85:53:c8:61:b6:e8:43:ee:d4:8d:a5:
        e4:8e:72:22:5b:64:0a:c0:85:40:fc:75:68:80:bc:1f:5d:00:
        32:95:b8:52:50:69:12:94:7f:8f:72:e3:86:4f:98:79:f9:fd:
        7f:3c:2b:a1:71:96:a2:71:eb:03:bd:52:98:05:ba:5d:bf:f5:
        2e:ce:59:5d
-----BEGIN CERTIFICATE-----
MIID4zCCAsugAwIBAgIUGyj0diB3CxbXG43pPsG+KjOE9LQwDQYJKoZIhvcNAQEF
BQAwOTELMAkGA1UEBhMCQVUxFzAVBgNVBAoMDkRvZGd5IEJyb3RoZXJzMREwDwYD
VQQDDAhEb2RneSBDQTAeFw0yNTA0MDcxMzE5MzBaFw0yNjA0MDcxMzE5MzBaMFcx
CzAJBgNVBAYTAkFVMRcwFQYDVQQKDA5Eb2RneSBCcm90aGVyczESMBAGA1UEAwwJ
QnJvdGhlciAxMRswGQYDVQQDDBJsYXN0dXBkYXRlX3V0Y3RpbWUwggEiMA0GCSqG
SIb3DQEBAQUAA4IBDwAwggEKAoIBAQC+lYb6cUxq6lGYUEuZoSxmFfNg8+H/afvO
SAEd/uEsOLDjvY9LSKd+OsZz46u/4dpulvX+w+S0qK28VjTUliV0J8MQ2zUQJRyO
S4Gb+0IEfG894jhsDuQujioYbTDNZyojazfPBZ/Mt1lYf7rECj+MpK3LmJzA8o9p
Zw/BTjPP/IVeu17Pk7DP2fRSeYex+E0VaGXVtxkIY39esTStBY9a8OThjyXyXFxh
lbBWLTErCGV55bE7nT65UkusXcRYZoWNgbMEKPQ/L6ySAWLV/Y4L2gIMesduCRys
HLJM11S4JjOyXxTzsfk9Yk1AmWu254lYl9bUTepLaFLzPKixNYjbAgMBAAGjgcQw
gcEwHQYDVR0OBBYEFKHfM8PPPlNBp2hEzKoZ4YTJDbzGMHQGA1UdIwRtMGuAFLQR
M/HX4l73U54gIhBPhga/H8leoT2kOzA5MQswCQYDVQQGEwJBVTEXMBUGA1UECgwO
RG9kZ3kgQnJvdGhlcnMxETAPBgNVBAMMCERvZGd5IENBghQL5qsto2gUP6+DLGe6
hvla9jCZ4TASBgNVHRMBAf8ECDAGAQH/AgEBMAsGA1UdDwQEAwIBBjAJBgNVHRIE
AjAAMA0GCSqGSIb3DQEBBQUAA4IBAQCEH+2anQECKhdjLeXKaFm21ofYN07Dl3bU
5nMIt8yCpHHqcxhmHUnXqKWwcP8sx4PeO0m096EpnpeqLMTIUDmHOUI185Z5F2e+
yacYAwjFIEKRxdt+YmM/9Yzbbf8zKJYo4wHO5V4KOZ/eu4BFqidyFbUpQ+fB5ouB
ptk0UYrj+jpBeCo2jzFiEIjVWWIV4yJX5tpBQ1LSU5KRhAbW1nxuVu0ElWU73mtW
BkXDXvU/o2qFiaL93Uk711IahVPIYbboQ+7UjaXkjnIiW2QKwIVA/HVogLwfXQAy
lbhSUGkSlH+PcuOGT5h5+f1/PCuhcZaicesDvVKYBbpdv/Uuzlld
-----END CERTIFICATE-----
