Certificate:
    Data:
        Version: 3 (0x2)
        Serial Number:
            1b:28:f4:76:20:77:0b:16:d7:1b:8d:e9:3e:c1:be:2a:33:84:f4:af
        Signature Algorithm: sha256WithRSAEncryption
        Issuer: C=AU, O=Dodgy Brothers, CN=Dodgy CA
        Validity
            Not Before: Apr  7 13:19:30 2025 GMT
            Not After : Apr  7 13:19:30 2026 GMT
        Subject: C=AU, O=Dodgy Brothers, CN=Brother 1, CN=Brother 2
        Subject Public Key Info:
            Public Key Algorithm: rsaEncryption
                Public-Key: (2048 bit)
                Modulus:
                    00:a8:ff:89:58:61:85:ae:de:db:2c:0f:d5:73:fb:
                    e2:b7:a8:1b:7a:75:60:2b:d4:7d:3c:73:76:b5:ae:
                    de:93:2f:7f:24:90:6d:c9:1c:f4:8a:38:cd:9f:a2:
                    80:16:56:cb:b4:2c:bb:93:e5:17:1f:ff:0d:c6:43:
                    fe:31:34:f8:28:d8:75:e9:a3:bb:88:82:ef:a3:72:
                    e2:53:62:05:45:4d:e0:31:97:ef:aa:9d:10:d2:58:
                    0d:9e:06:9e:32:bb:1b:08:56:5d:65:0f:3f:66:8e:
                    c2:36:a0:11:ff:c0:59:35:fd:49:1c:dd:1c:42:33:
                    06:78:ae:04:38:23:e5:e7:75:67:d3:94:ad:5a:a9:
                    40:1f:ac:59:10:f5:0c:c1:64:ad:4a:c4:c6:35:53:
                    b3:96:6a:82:1b:15:8b:d1:99:ab:e4:9e:6f:94:aa:
                    d2:96:e5:57:fb:8c:91:64:8a:3c:24:16:c6:d2:19:
                    be:82:60:13:3b:62:b0:ed:3e:1d:b3:ca:f9:6b:df:
                    31:b9:7a:9e:4b:47:68:a7:29:c7:3f:4a:e2:22:27:
                    b4:ef:90:63:d7:ef:d0:72:49:3e:5b:ad:b9:1b:d4:
                    2b:6f:86:68:dd:d5:73:12:b8:43:c9:dc:41:0f:a2:
                    a3:46:4f:8b:67:88:84:0f:61:fe:79:34:1f:4a:89:
                    1f:b7
                Exponent: 65537 (0x10001)
        X509v3 extensions:
            X509v3 Basic Constraints: 
                CA:FALSE
            X509v3 Subject Key Identifier: 
                E7:9B:E2:2A:AD:8A:6C:3A:CB:76:51:E5:8E:07:98:22:97:E1:73:A2
            X509v3 Authority Key Identifier: 
                B4:11:33:F1:D7:E2:5E:F7:53:9E:20:22:10:4F:86:06:BF:1F:C9:5E
    Signature Algorithm: sha256WithRSAEncryption
    Signature Value:
        01:61:f0:aa:2e:e0:8a:09:c9:21:e4:d0:91:f4:c3:5e:e5:76:
        dd:f6:ce:40:1c:09:25:51:36:18:b7:f6:03:1d:d4:aa:ad:8e:
        e1:7d:f2:de:26:ea:6c:cb:22:03:b2:dd:d1:5d:f9:f1:56:24:
        63:00:8a:ba:ce:be:dc:88:79:34:ee:a8:0d:55:4b:cd:41:3f:
        70:67:fd:2e:00:e8:bf:1e:73:b8:ff:d8:4a:b2:31:19:2b:83:
        5f:b6:78:2b:60:f0:50:6c:aa:67:55:43:38:a8:ed:e6:e2:c5:
        7f:88:ce:75:fb:dd:c0:ab:20:ac:65:72:03:cc:8e:47:87:9a:
        12:13:35:e3:c9:3a:f3:05:d9:ba:8d:f3:fc:5d:3d:ed:33:51:
        56:6c:68:96:10:fa:5d:9a:63:5d:23:7a:5b:b7:0d:5e:da:aa:
        d9:ab:c5:b6:68:46:26:bc:7d:1a:1b:e7:88:61:dc:8a:27:b8:
        e0:b3:ee:83:41:7e:a0:55:54:9c:b3:bb:44:6a:92:a6:33:38:
        06:02:6c:22:33:30:a9:07:6e:e3:32:17:03:36:b4:a5:6b:d3:
        67:be:60:5a:4d:ff:0f:43:b1:e0:c3:c0:8b:58:df:bb:8c:38:
        c7:ea:f7:b1:01:08:27:e4:77:8e:e7:ec:c9:96:af:99:32:52:
        9f:67:2b:f7
-----BEGIN CERTIFICATE-----
MIIDYjCCAkqgAwIBAgIUGyj0diB3CxbXG43pPsG+KjOE9K8wDQYJKoZIhvcNAQEL
BQAwOTELMAkGA1UEBhMCQVUxFzAVBgNVBAoMDkRvZGd5IEJyb3RoZXJzMREwDwYD
VQQDDAhEb2RneSBDQTAeFw0yNTA0MDcxMzE5MzBaFw0yNjA0MDcxMzE5MzBaME4x
CzAJBgNVBAYTAkFVMRcwFQYDVQQKDA5Eb2RneSBCcm90aGVyczESMBAGA1UEAwwJ
QnJvdGhlciAxMRIwEAYDVQQDDAlCcm90aGVyIDIwggEiMA0GCSqGSIb3DQEBAQUA
A4IBDwAwggEKAoIBAQCo/4lYYYWu3tssD9Vz++K3qBt6dWAr1H08c3a1rt6TL38k
kG3JHPSKOM2fooAWVsu0LLuT5Rcf/w3GQ/4xNPgo2HXpo7uIgu+jcuJTYgVFTeAx
l++qnRDSWA2eBp4yuxsIVl1lDz9mjsI2oBH/wFk1/Ukc3RxCMwZ4rgQ4I+XndWfT
lK1aqUAfrFkQ9QzBZK1KxMY1U7OWaoIbFYvRmavknm+UqtKW5Vf7jJFkijwkFsbS
Gb6CYBM7YrDtPh2zyvlr3zG5ep5LR2inKcc/SuIiJ7TvkGPX79ByST5brbkb1Ctv
hmjd1XMSuEPJ3EEPoqNGT4tniIQPYf55NB9KiR+3AgMBAAGjTTBLMAkGA1UdEwQC
MAAwHQYDVR0OBBYEFOeb4iqtimw6y3ZR5Y4HmCKX4XOiMB8GA1UdIwQYMBaAFLQR
M/HX4l73U54gIhBPhga/H8leMA0GCSqGSIb3DQEBCwUAA4IBAQABYfCqLuCKCckh
5NCR9MNe5Xbd9s5AHAklUTYYt/YDHdSqrY7hffLeJupsyyIDst3RXfnxViRjAIq6
zr7ciHk07qgNVUvNQT9wZ/0uAOi/HnO4/9hKsjEZK4NftngrYPBQbKpnVUM4qO3m
4sV/iM51+93AqyCsZXIDzI5Hh5oSEzXjyTrzBdm6jfP8XT3tM1FWbGiWEPpdmmNd
I3pbtw1e2qrZq8W2aEYmvH0aG+eIYdyKJ7jgs+6DQX6gVVScs7tEapKmMzgGAmwi
MzCpB27jMhcDNrSla9NnvmBaTf8PQ7Hgw8CLWN+7jDjH6vexAQgn5HeO5+zJlq+Z
MlKfZyv3
-----END CERTIFICATE-----
