Certificate:
    Data:
        Version: 3 (0x2)
        Serial Number:
            1b:28:f4:76:20:77:0b:16:d7:1b:8d:e9:3e:c1:be:2a:33:84:f4:b5
        Signature Algorithm: sha1WithRSAEncryption
        Issuer: C=AU, O=Dodgy Brothers, CN=Dodgy CA
        Validity
            Not Before: Apr  7 13:19:30 2025 GMT
            Not After : Apr  7 13:19:30 2026 GMT
        Subject: C=AU, O=Dodgy Brothers, CN=Brother 1, CN=lastupdate_generalizedtime
        Subject Public Key Info:
            Public Key Algorithm: rsaEncryption
                Public-Key: (2048 bit)
                Modulus:
                    00:be:95:86:fa:71:4c:6a:ea:51:98:50:4b:99:a1:
                    2c:66:15:f3:60:f3:e1:ff:69:fb:ce:48:01:1d:fe:
                    e1:2c:38:b0:e3:bd:8f:4b:48:a7:7e:3a:c6:73:e3:
                    ab:bf:e1:da:6e:96:f5:fe:c3:e4:b4:a8:ad:bc:56:
                    34:d4:96:25:74:27:c3:10:db:35:10:25:1c:8e:4b:
                    81:9b:fb:42:04:7c:6f:3d:e2:38:6c:0e:e4:2e:8e:
                    2a:18:6d:30:cd:67:2a:23:6b:37:cf:05:9f:cc:b7:
                    59:58:7f:ba:c4:0a:3f:8c:a4:ad:cb:98:9c:c0:f2:
                    8f:69:67:0f:c1:4e:33:cf:fc:85:5e:bb:5e:cf:93:
                    b0:cf:d9:f4:52:79:87:b1:f8:4d:15:68:65:d5:b7:
                    19:08:63:7f:5e:b1:34:ad:05:8f:5a:f0:e4:e1:8f:
                    25:f2:5c:5c:61:95:b0:56:2d:31:2b:08:65:79:e5:
                    b1:3b:9d:3e:b9:52:4b:ac:5d:c4:58:66:85:8d:81:
                    b3:04:28:f4:3f:2f:ac:92:01:62:d5:fd:8e:0b:da:
                    02:0c:7a:c7:6e:09:1c:ac:1c:b2:4c:d7:54:b8:26:
                    33:b2:5f:14:f3:b1:f9:3d:62:4d:40:99:6b:b6:e7:
                    89:58:97:d6:d4:4d:ea:4b:68:52:f3:3c:a8:b1:35:
                    88:db
                Exponent: 65537 (0x10001)
        X509v3 extensions:
            X509v3 Subject Key Identifier: 
                A1:DF:33:C3:CF:3E:53:41:A7:68:44:CC:AA:19:E1:84:C9:0D:BC:C6
            X509v3 Authority Key Identifier: 
                keyid:B4:11:33:F1:D7:E2:5E:F7:53:9E:20:22:10:4F:86:06:BF:1F:C9:5E
                DirName:/C=AU/O=Dodgy Brothers/CN=Dodgy CA
                serial:0B:E6:AB:2D:A3:68:14:3F:AF:83:2C:67:BA:86:F9:5A:F6:30:99:E1
            X509v3 Basic Constraints: critical
                CA:TRUE, pathlen:1
            X509v3 Key Usage: 
                Certificate Sign, CRL Sign
            X509v3 Issuer Alternative Name: 
                <EMPTY>

    Signature Algorithm: sha1WithRSAEncryption
    Signature Value:
        65:01:5a:e1:c2:36:47:be:1b:48:d9:45:60:2a:e8:bb:44:12:
        5a:be:8c:32:aa:47:e0:b5:f1:13:ef:70:d5:8c:20:fd:f8:5b:
        88:27:31:05:d8:d7:b7:45:b8:0b:61:2e:48:4a:80:33:ad:5e:
        e6:c0:ea:62:50:a2:3d:0d:92:88:64:df:02:a5:f3:28:89:b3:
        e1:57:76:91:d0:2d:dc:52:c9:bc:07:5f:f9:73:b2:38:69:a5:
        b2:45:cc:b0:93:c0:33:e0:22:de:18:70:0d:95:56:38:7b:ad:
        2b:35:aa:1e:9d:53:d2:39:63:40:ce:8e:c9:a1:36:e3:d1:7c:
        3f:d0:92:23:a8:73:e8:13:7a:d3:b6:4f:fd:ef:02:16:5a:57:
        1a:3a:f4:be:65:70:a8:cc:3d:f8:e6:fa:bb:05:2f:a4:1e:9c:
        90:ab:e4:dd:5e:59:c4:56:3e:53:87:37:6d:9c:72:eb:57:2f:
        a8:53:97:0f:9e:de:55:e1:6a:35:59:41:a5:c4:8f:6b:c8:58:
        e0:b2:06:9b:f3:da:90:d1:05:da:f9:84:58:e5:a4:f9:bc:0d:
        e5:45:b0:12:2c:52:60:c4:b4:13:52:e8:7b:3f:88:21:27:4b:
        1b:35:08:e2:24:e0:62:e8:ca:9c:96:5d:61:51:9b:69:1a:c0:
        31:59:5b:72
-----BEGIN CERTIFICATE-----
MIID6zCCAtOgAwIBAgIUGyj0diB3CxbXG43pPsG+KjOE9LUwDQYJKoZIhvcNAQEF
BQAwOTELMAkGA1UEBhMCQVUxFzAVBgNVBAoMDkRvZGd5IEJyb3RoZXJzMREwDwYD
VQQDDAhEb2RneSBDQTAeFw0yNTA0MDcxMzE5MzBaFw0yNjA0MDcxMzE5MzBaMF8x
CzAJBgNVBAYTAkFVMRcwFQYDVQQKDA5Eb2RneSBCcm90aGVyczESMBAGA1UEAwwJ
QnJvdGhlciAxMSMwIQYDVQQDDBpsYXN0dXBkYXRlX2dlbmVyYWxpemVkdGltZTCC
ASIwDQYJKoZIhvcNAQEBBQADggEPADCCAQoCggEBAL6VhvpxTGrqUZhQS5mhLGYV
82Dz4f9p+85IAR3+4Sw4sOO9j0tIp346xnPjq7/h2m6W9f7D5LSorbxWNNSWJXQn
wxDbNRAlHI5LgZv7QgR8bz3iOGwO5C6OKhhtMM1nKiNrN88Fn8y3WVh/usQKP4yk
rcuYnMDyj2lnD8FOM8/8hV67Xs+TsM/Z9FJ5h7H4TRVoZdW3GQhjf16xNK0Fj1rw
5OGPJfJcXGGVsFYtMSsIZXnlsTudPrlSS6xdxFhmhY2BswQo9D8vrJIBYtX9jgva
Agx6x24JHKwcskzXVLgmM7JfFPOx+T1iTUCZa7bniViX1tRN6ktoUvM8qLE1iNsC
AwEAAaOBxDCBwTAdBgNVHQ4EFgQUod8zw88+U0GnaETMqhnhhMkNvMYwdAYDVR0j
BG0wa4AUtBEz8dfiXvdTniAiEE+GBr8fyV6hPaQ7MDkxCzAJBgNVBAYTAkFVMRcw
FQYDVQQKDA5Eb2RneSBCcm90aGVyczERMA8GA1UEAwwIRG9kZ3kgQ0GCFAvmqy2j
aBQ/r4MsZ7qG+Vr2MJnhMBIGA1UdEwEB/wQIMAYBAf8CAQEwCwYDVR0PBAQDAgEG
MAkGA1UdEgQCMAAwDQYJKoZIhvcNAQEFBQADggEBAGUBWuHCNke+G0jZRWAq6LtE
Elq+jDKqR+C18RPvcNWMIP34W4gnMQXY17dFuAthLkhKgDOtXubA6mJQoj0Nkohk
3wKl8yiJs+FXdpHQLdxSybwHX/lzsjhppbJFzLCTwDPgIt4YcA2VVjh7rSs1qh6d
U9I5Y0DOjsmhNuPRfD/QkiOoc+gTetO2T/3vAhZaVxo69L5lcKjMPfjm+rsFL6Qe
nJCr5N1eWcRWPlOHN22ccutXL6hTlw+e3lXhajVZQaXEj2vIWOCyBpvz2pDRBdr5
hFjlpPm8DeVFsBIsUmDEtBNS6Hs/iCEnSxs1COIk4GLoypyWXWFRm2kawDFZW3I=
-----END CERTIFICATE-----
