Certificate:
    Data:
        Version: 3 (0x2)
        Serial Number:
            1b:28:f4:76:20:77:0b:16:d7:1b:8d:e9:3e:c1:be:2a:33:84:f4:b7
        Signature Algorithm: sha1WithRSAEncryption
        Issuer: C=AU, O=Dodgy Brothers, CN=Dodgy CA
        Validity
            Not Before: Apr  7 13:19:30 2025 GMT
            Not After : Apr  7 13:19:30 2026 GMT
        Subject: C=AU, O=Dodgy Brothers, CN=Brother 1, CN=nextupdate_utctime
        Subject Public Key Info:
            Public Key Algorithm: rsaEncryption
                Public-Key: (2048 bit)
                Modulus:
                    00:be:95:86:fa:71:4c:6a:ea:51:98:50:4b:99:a1:
                    2c:66:15:f3:60:f3:e1:ff:69:fb:ce:48:01:1d:fe:
                    e1:2c:38:b0:e3:bd:8f:4b:48:a7:7e:3a:c6:73:e3:
                    ab:bf:e1:da:6e:96:f5:fe:c3:e4:b4:a8:ad:bc:56:
                    34:d4:96:25:74:27:c3:10:db:35:10:25:1c:8e:4b:
                    81:9b:fb:42:04:7c:6f:3d:e2:38:6c:0e:e4:2e:8e:
                    2a:18:6d:30:cd:67:2a:23:6b:37:cf:05:9f:cc:b7:
                    59:58:7f:ba:c4:0a:3f:8c:a4:ad:cb:98:9c:c0:f2:
                    8f:69:67:0f:c1:4e:33:cf:fc:85:5e:bb:5e:cf:93:
                    b0:cf:d9:f4:52:79:87:b1:f8:4d:15:68:65:d5:b7:
                    19:08:63:7f:5e:b1:34:ad:05:8f:5a:f0:e4:e1:8f:
                    25:f2:5c:5c:61:95:b0:56:2d:31:2b:08:65:79:e5:
                    b1:3b:9d:3e:b9:52:4b:ac:5d:c4:58:66:85:8d:81:
                    b3:04:28:f4:3f:2f:ac:92:01:62:d5:fd:8e:0b:da:
                    02:0c:7a:c7:6e:09:1c:ac:1c:b2:4c:d7:54:b8:26:
                    33:b2:5f:14:f3:b1:f9:3d:62:4d:40:99:6b:b6:e7:
                    89:58:97:d6:d4:4d:ea:4b:68:52:f3:3c:a8:b1:35:
                    88:db
                Exponent: 65537 (0x10001)
        X509v3 extensions:
            X509v3 Subject Key Identifier: 
                A1:DF:33:C3:CF:3E:53:41:A7:68:44:CC:AA:19:E1:84:C9:0D:BC:C6
            X509v3 Authority Key Identifier: 
                keyid:B4:11:33:F1:D7:E2:5E:F7:53:9E:20:22:10:4F:86:06:BF:1F:C9:5E
                DirName:/C=AU/O=Dodgy Brothers/CN=Dodgy CA
                serial:0B:E6:AB:2D:A3:68:14:3F:AF:83:2C:67:BA:86:F9:5A:F6:30:99:E1
            X509v3 Basic Constraints: critical
                CA:TRUE, pathlen:1
            X509v3 Key Usage: 
                Certificate Sign, CRL Sign
            X509v3 Issuer Alternative Name: 
                <EMPTY>

    Signature Algorithm: sha1WithRSAEncryption
    Signature Value:
        4f:50:0e:9b:b8:30:19:a4:ea:85:88:51:36:22:8a:b9:16:03:
        81:03:0c:8d:93:7a:29:11:ca:8d:e8:68:5f:8b:08:5d:e2:17:
        d3:4a:bb:97:ed:e6:20:93:e6:e8:0e:ee:d4:6e:95:fa:8e:9c:
        ec:2c:b0:f2:b4:c6:a3:7d:c5:d4:19:a2:43:7e:36:40:76:b7:
        84:2b:ee:33:d6:bc:33:7b:00:3d:28:6f:c3:1d:0c:7d:b9:de:
        88:0b:5c:7c:29:9a:79:83:c7:70:44:b7:79:4a:5a:fa:bb:92:
        24:27:a7:f9:a7:8e:4a:61:18:cc:5e:89:52:fd:40:e5:89:72:
        4c:a9:f9:f7:20:34:32:34:2d:f0:a1:ca:1e:ee:39:b2:b3:7f:
        18:c9:62:a7:07:02:9e:e2:cb:00:68:48:15:d2:c0:61:e4:58:
        d0:79:3c:e2:06:70:92:e9:7d:3d:87:20:42:fd:9a:75:bb:0e:
        90:de:7e:57:17:e6:c5:51:6a:d0:60:f5:e7:c5:54:be:71:91:
        0f:f6:7e:f0:df:ae:12:6a:d5:58:e0:58:9f:88:f8:2d:d5:14:
        33:d9:51:02:55:3e:c0:9b:ea:31:6b:ac:fe:08:2d:00:51:49:
        a5:d0:93:7e:02:10:67:88:22:d6:5c:1a:e4:1a:2e:53:5d:b1:
        f5:a2:0a:da
-----BEGIN CERTIFICATE-----
MIID4zCCAsugAwIBAgIUGyj0diB3CxbXG43pPsG+KjOE9LcwDQYJKoZIhvcNAQEF
BQAwOTELMAkGA1UEBhMCQVUxFzAVBgNVBAoMDkRvZGd5IEJyb3RoZXJzMREwDwYD
VQQDDAhEb2RneSBDQTAeFw0yNTA0MDcxMzE5MzBaFw0yNjA0MDcxMzE5MzBaMFcx
CzAJBgNVBAYTAkFVMRcwFQYDVQQKDA5Eb2RneSBCcm90aGVyczESMBAGA1UEAwwJ
QnJvdGhlciAxMRswGQYDVQQDDBJuZXh0dXBkYXRlX3V0Y3RpbWUwggEiMA0GCSqG
SIb3DQEBAQUAA4IBDwAwggEKAoIBAQC+lYb6cUxq6lGYUEuZoSxmFfNg8+H/afvO
SAEd/uEsOLDjvY9LSKd+OsZz46u/4dpulvX+w+S0qK28VjTUliV0J8MQ2zUQJRyO
S4Gb+0IEfG894jhsDuQujioYbTDNZyojazfPBZ/Mt1lYf7rECj+MpK3LmJzA8o9p
Zw/BTjPP/IVeu17Pk7DP2fRSeYex+E0VaGXVtxkIY39esTStBY9a8OThjyXyXFxh
lbBWLTErCGV55bE7nT65UkusXcRYZoWNgbMEKPQ/L6ySAWLV/Y4L2gIMesduCRys
HLJM11S4JjOyXxTzsfk9Yk1AmWu254lYl9bUTepLaFLzPKixNYjbAgMBAAGjgcQw
gcEwHQYDVR0OBBYEFKHfM8PPPlNBp2hEzKoZ4YTJDbzGMHQGA1UdIwRtMGuAFLQR
M/HX4l73U54gIhBPhga/H8leoT2kOzA5MQswCQYDVQQGEwJBVTEXMBUGA1UECgwO
RG9kZ3kgQnJvdGhlcnMxETAPBgNVBAMMCERvZGd5IENBghQL5qsto2gUP6+DLGe6
hvla9jCZ4TASBgNVHRMBAf8ECDAGAQH/AgEBMAsGA1UdDwQEAwIBBjAJBgNVHRIE
AjAAMA0GCSqGSIb3DQEBBQUAA4IBAQBPUA6buDAZpOqFiFE2Ioq5FgOBAwyNk3op
EcqN6Ghfiwhd4hfTSruX7eYgk+boDu7UbpX6jpzsLLDytMajfcXUGaJDfjZAdreE
K+4z1rwzewA9KG/DHQx9ud6IC1x8KZp5g8dwRLd5Slr6u5IkJ6f5p45KYRjMXolS
/UDliXJMqfn3IDQyNC3wocoe7jmys38YyWKnBwKe4ssAaEgV0sBh5FjQeTziBnCS
6X09hyBC/Zp1uw6Q3n5XF+bFUWrQYPXnxVS+cZEP9n7w364SatVY4FifiPgt1RQz
2VECVT7Am+oxa6z+CC0AUUml0JN+AhBniCLWXBrkGi5TXbH1ogra
-----END CERTIFICATE-----
