Certificate:
    Data:
        Version: 3 (0x2)
        Serial Number:
            1b:28:f4:76:20:77:0b:16:d7:1b:8d:e9:3e:c1:be:2a:33:84:f4:ba
        Signature Algorithm: sha1WithRSAEncryption
        Issuer: C=AU, O=Dodgy Brothers, CN=Dodgy CA
        Validity
            Not Before: Apr  7 13:19:31 2025 GMT
            Not After : Apr  7 13:19:31 2026 GMT
        Subject: C=AU, O=Dodgy Brothers, CN=Brother 1, CN=both_generalizedtime
        Subject Public Key Info:
            Public Key Algorithm: rsaEncryption
                Public-Key: (2048 bit)
                Modulus:
                    00:be:95:86:fa:71:4c:6a:ea:51:98:50:4b:99:a1:
                    2c:66:15:f3:60:f3:e1:ff:69:fb:ce:48:01:1d:fe:
                    e1:2c:38:b0:e3:bd:8f:4b:48:a7:7e:3a:c6:73:e3:
                    ab:bf:e1:da:6e:96:f5:fe:c3:e4:b4:a8:ad:bc:56:
                    34:d4:96:25:74:27:c3:10:db:35:10:25:1c:8e:4b:
                    81:9b:fb:42:04:7c:6f:3d:e2:38:6c:0e:e4:2e:8e:
                    2a:18:6d:30:cd:67:2a:23:6b:37:cf:05:9f:cc:b7:
                    59:58:7f:ba:c4:0a:3f:8c:a4:ad:cb:98:9c:c0:f2:
                    8f:69:67:0f:c1:4e:33:cf:fc:85:5e:bb:5e:cf:93:
                    b0:cf:d9:f4:52:79:87:b1:f8:4d:15:68:65:d5:b7:
                    19:08:63:7f:5e:b1:34:ad:05:8f:5a:f0:e4:e1:8f:
                    25:f2:5c:5c:61:95:b0:56:2d:31:2b:08:65:79:e5:
                    b1:3b:9d:3e:b9:52:4b:ac:5d:c4:58:66:85:8d:81:
                    b3:04:28:f4:3f:2f:ac:92:01:62:d5:fd:8e:0b:da:
                    02:0c:7a:c7:6e:09:1c:ac:1c:b2:4c:d7:54:b8:26:
                    33:b2:5f:14:f3:b1:f9:3d:62:4d:40:99:6b:b6:e7:
                    89:58:97:d6:d4:4d:ea:4b:68:52:f3:3c:a8:b1:35:
                    88:db
                Exponent: 65537 (0x10001)
        X509v3 extensions:
            X509v3 Subject Key Identifier: 
                A1:DF:33:C3:CF:3E:53:41:A7:68:44:CC:AA:19:E1:84:C9:0D:BC:C6
            X509v3 Authority Key Identifier: 
                keyid:B4:11:33:F1:D7:E2:5E:F7:53:9E:20:22:10:4F:86:06:BF:1F:C9:5E
                DirName:/C=AU/O=Dodgy Brothers/CN=Dodgy CA
                serial:0B:E6:AB:2D:A3:68:14:3F:AF:83:2C:67:BA:86:F9:5A:F6:30:99:E1
            X509v3 Basic Constraints: critical
                CA:TRUE, pathlen:1
            X509v3 Key Usage: 
                Certificate Sign, CRL Sign
            X509v3 Issuer Alternative Name: 
                <EMPTY>

    Signature Algorithm: sha1WithRSAEncryption
    Signature Value:
        3b:a1:cd:cf:41:92:f2:5b:1b:42:61:fd:43:ff:7c:00:3a:11:
        c7:fc:51:16:07:44:85:de:5c:66:73:c2:cc:23:b3:52:58:4c:
        07:ca:40:b8:bb:0f:a7:3b:36:b2:1f:fc:9d:f6:72:02:5d:c0:
        a5:1c:81:27:ee:d0:8f:60:1c:31:4b:b5:b1:f9:b5:dd:ca:da:
        ba:45:be:d3:e0:0b:47:81:6e:47:ae:cf:82:13:74:68:8b:7f:
        4e:ee:d8:66:06:20:10:f7:05:43:4b:a3:7a:60:d5:c8:94:aa:
        b0:d5:5e:0e:92:23:a2:d2:a5:4c:cf:95:08:d1:3c:2b:7c:4a:
        ed:8b:2f:9b:d2:69:d1:dd:51:84:88:73:3e:8b:20:af:f7:c2:
        d5:b2:64:75:80:7d:1a:dd:31:fa:1c:f8:94:97:20:d4:b5:7a:
        7c:98:dc:38:4b:cd:14:f9:03:72:43:69:59:6e:99:3e:97:48:
        4c:45:b0:65:f6:52:db:81:b4:76:8f:37:ce:36:ad:22:5f:a6:
        d2:2f:b3:51:c9:77:6a:a4:07:36:91:47:71:72:d9:c2:cd:ab:
        c4:f3:72:22:3e:57:9d:79:55:9c:64:66:94:03:0e:8d:53:31:
        db:91:a4:eb:e7:20:db:3e:4b:00:cf:35:e1:cb:db:43:86:f5:
        7a:ec:cf:cd
-----BEGIN CERTIFICATE-----
MIID5TCCAs2gAwIBAgIUGyj0diB3CxbXG43pPsG+KjOE9LowDQYJKoZIhvcNAQEF
BQAwOTELMAkGA1UEBhMCQVUxFzAVBgNVBAoMDkRvZGd5IEJyb3RoZXJzMREwDwYD
VQQDDAhEb2RneSBDQTAeFw0yNTA0MDcxMzE5MzFaFw0yNjA0MDcxMzE5MzFaMFkx
CzAJBgNVBAYTAkFVMRcwFQYDVQQKDA5Eb2RneSBCcm90aGVyczESMBAGA1UEAwwJ
QnJvdGhlciAxMR0wGwYDVQQDDBRib3RoX2dlbmVyYWxpemVkdGltZTCCASIwDQYJ
KoZIhvcNAQEBBQADggEPADCCAQoCggEBAL6VhvpxTGrqUZhQS5mhLGYV82Dz4f9p
+85IAR3+4Sw4sOO9j0tIp346xnPjq7/h2m6W9f7D5LSorbxWNNSWJXQnwxDbNRAl
HI5LgZv7QgR8bz3iOGwO5C6OKhhtMM1nKiNrN88Fn8y3WVh/usQKP4ykrcuYnMDy
j2lnD8FOM8/8hV67Xs+TsM/Z9FJ5h7H4TRVoZdW3GQhjf16xNK0Fj1rw5OGPJfJc
XGGVsFYtMSsIZXnlsTudPrlSS6xdxFhmhY2BswQo9D8vrJIBYtX9jgvaAgx6x24J
HKwcskzXVLgmM7JfFPOx+T1iTUCZa7bniViX1tRN6ktoUvM8qLE1iNsCAwEAAaOB
xDCBwTAdBgNVHQ4EFgQUod8zw88+U0GnaETMqhnhhMkNvMYwdAYDVR0jBG0wa4AU
tBEz8dfiXvdTniAiEE+GBr8fyV6hPaQ7MDkxCzAJBgNVBAYTAkFVMRcwFQYDVQQK
DA5Eb2RneSBCcm90aGVyczERMA8GA1UEAwwIRG9kZ3kgQ0GCFAvmqy2jaBQ/r4Ms
Z7qG+Vr2MJnhMBIGA1UdEwEB/wQIMAYBAf8CAQEwCwYDVR0PBAQDAgEGMAkGA1Ud
EgQCMAAwDQYJKoZIhvcNAQEFBQADggEBADuhzc9BkvJbG0Jh/UP/fAA6Ecf8URYH
RIXeXGZzwswjs1JYTAfKQLi7D6c7NrIf/J32cgJdwKUcgSfu0I9gHDFLtbH5td3K
2rpFvtPgC0eBbkeuz4ITdGiLf07u2GYGIBD3BUNLo3pg1ciUqrDVXg6SI6LSpUzP
lQjRPCt8Su2LL5vSadHdUYSIcz6LIK/3wtWyZHWAfRrdMfoc+JSXINS1enyY3DhL
zRT5A3JDaVlumT6XSExFsGX2UtuBtHaPN842rSJfptIvs1HJd2qkBzaRR3Fy2cLN
q8TzciI+V515VZxkZpQDDo1TMduRpOvnINs+SwDPNeHL20OG9Xrsz80=
-----END CERTIFICATE-----
