Certificate:
    Data:
        Version: 3 (0x2)
        Serial Number:
            2c:7e:f2:b5:22:7c:49:b6:1f:80:91:93:ee:a0:ad:2f:52:df:bb:5a
        Signature Algorithm: sha256WithRSAEncryption
        Issuer: C=AU, O=Dodgy Brothers, CN=Dodgy CA
        Validity
            Not Before: Mar 25 14:33:11 2025 GMT
            Not After : Mar 25 14:33:11 2026 GMT
        Subject: C=AU, O=Dodgy Brothers, CN=Brother 1, CN=Brother 2
        Subject Public Key Info:
            Public Key Algorithm: rsaEncryption
                Public-Key: (2048 bit)
                Modulus:
                    00:a8:ff:89:58:61:85:ae:de:db:2c:0f:d5:73:fb:
                    e2:b7:a8:1b:7a:75:60:2b:d4:7d:3c:73:76:b5:ae:
                    de:93:2f:7f:24:90:6d:c9:1c:f4:8a:38:cd:9f:a2:
                    80:16:56:cb:b4:2c:bb:93:e5:17:1f:ff:0d:c6:43:
                    fe:31:34:f8:28:d8:75:e9:a3:bb:88:82:ef:a3:72:
                    e2:53:62:05:45:4d:e0:31:97:ef:aa:9d:10:d2:58:
                    0d:9e:06:9e:32:bb:1b:08:56:5d:65:0f:3f:66:8e:
                    c2:36:a0:11:ff:c0:59:35:fd:49:1c:dd:1c:42:33:
                    06:78:ae:04:38:23:e5:e7:75:67:d3:94:ad:5a:a9:
                    40:1f:ac:59:10:f5:0c:c1:64:ad:4a:c4:c6:35:53:
                    b3:96:6a:82:1b:15:8b:d1:99:ab:e4:9e:6f:94:aa:
                    d2:96:e5:57:fb:8c:91:64:8a:3c:24:16:c6:d2:19:
                    be:82:60:13:3b:62:b0:ed:3e:1d:b3:ca:f9:6b:df:
                    31:b9:7a:9e:4b:47:68:a7:29:c7:3f:4a:e2:22:27:
                    b4:ef:90:63:d7:ef:d0:72:49:3e:5b:ad:b9:1b:d4:
                    2b:6f:86:68:dd:d5:73:12:b8:43:c9:dc:41:0f:a2:
                    a3:46:4f:8b:67:88:84:0f:61:fe:79:34:1f:4a:89:
                    1f:b7
                Exponent: 65537 (0x10001)
        X509v3 extensions:
            X509v3 Basic Constraints: 
                CA:FALSE
            X509v3 Subject Key Identifier: 
                E7:9B:E2:2A:AD:8A:6C:3A:CB:76:51:E5:8E:07:98:22:97:E1:73:A2
            X509v3 Authority Key Identifier: 
                B4:11:33:F1:D7:E2:5E:F7:53:9E:20:22:10:4F:86:06:BF:1F:C9:5E
    Signature Algorithm: sha256WithRSAEncryption
    Signature Value:
        75:46:39:62:19:b3:e6:5a:ab:32:f5:93:21:5a:cf:b5:18:08:
        62:e4:7d:06:05:22:4d:ee:0e:66:8f:57:50:c2:49:5a:c0:00:
        72:f4:78:3d:22:55:b9:21:ea:8a:f2:63:21:58:7e:2b:e3:65:
        9c:e9:a6:82:ea:d4:98:a1:1d:94:92:4b:15:75:40:50:24:28:
        54:c1:6a:45:e4:e5:01:86:99:0f:0f:49:75:ac:a1:8a:ce:e2:
        ff:54:69:86:66:42:19:fa:0c:13:5d:83:a5:ca:81:ee:7c:d9:
        40:99:10:5b:36:44:91:df:0a:8c:cc:f7:9a:61:28:8a:06:39:
        68:aa:b6:71:34:82:92:a9:a3:26:ef:ae:27:e0:ff:49:6d:16:
        da:cd:14:19:84:a0:fb:14:77:f7:b7:f0:54:8a:35:b5:7f:20:
        14:d1:50:80:2f:42:f2:c5:14:69:ff:0a:5d:15:91:e9:70:41:
        4f:5e:81:fb:2a:76:62:ea:59:b1:12:d4:f4:a7:68:9c:7a:40:
        92:d8:a7:b7:9c:99:a0:86:6c:07:ab:61:2b:6e:6f:83:6b:44:
        58:b6:b7:e7:85:61:2d:00:0d:94:ea:18:4d:5c:01:26:8a:58:
        29:40:61:b2:14:b5:3c:62:f2:4d:b3:09:da:96:f1:b5:b5:9d:
        e0:71:43:d7
-----BEGIN CERTIFICATE-----
MIIDYjCCAkqgAwIBAgIULH7ytSJ8SbYfgJGT7qCtL1Lfu1owDQYJKoZIhvcNAQEL
BQAwOTELMAkGA1UEBhMCQVUxFzAVBgNVBAoMDkRvZGd5IEJyb3RoZXJzMREwDwYD
VQQDDAhEb2RneSBDQTAeFw0yNTAzMjUxNDMzMTFaFw0yNjAzMjUxNDMzMTFaME4x
CzAJBgNVBAYTAkFVMRcwFQYDVQQKDA5Eb2RneSBCcm90aGVyczESMBAGA1UEAwwJ
QnJvdGhlciAxMRIwEAYDVQQDDAlCcm90aGVyIDIwggEiMA0GCSqGSIb3DQEBAQUA
A4IBDwAwggEKAoIBAQCo/4lYYYWu3tssD9Vz++K3qBt6dWAr1H08c3a1rt6TL38k
kG3JHPSKOM2fooAWVsu0LLuT5Rcf/w3GQ/4xNPgo2HXpo7uIgu+jcuJTYgVFTeAx
l++qnRDSWA2eBp4yuxsIVl1lDz9mjsI2oBH/wFk1/Ukc3RxCMwZ4rgQ4I+XndWfT
lK1aqUAfrFkQ9QzBZK1KxMY1U7OWaoIbFYvRmavknm+UqtKW5Vf7jJFkijwkFsbS
Gb6CYBM7YrDtPh2zyvlr3zG5ep5LR2inKcc/SuIiJ7TvkGPX79ByST5brbkb1Ctv
hmjd1XMSuEPJ3EEPoqNGT4tniIQPYf55NB9KiR+3AgMBAAGjTTBLMAkGA1UdEwQC
MAAwHQYDVR0OBBYEFOeb4iqtimw6y3ZR5Y4HmCKX4XOiMB8GA1UdIwQYMBaAFLQR
M/HX4l73U54gIhBPhga/H8leMA0GCSqGSIb3DQEBCwUAA4IBAQB1RjliGbPmWqsy
9ZMhWs+1GAhi5H0GBSJN7g5mj1dQwklawABy9Hg9IlW5IeqK8mMhWH4r42Wc6aaC
6tSYoR2UkksVdUBQJChUwWpF5OUBhpkPD0l1rKGKzuL/VGmGZkIZ+gwTXYOlyoHu
fNlAmRBbNkSR3wqMzPeaYSiKBjloqrZxNIKSqaMm764n4P9JbRbazRQZhKD7FHf3
t/BUijW1fyAU0VCAL0LyxRRp/wpdFZHpcEFPXoH7KnZi6lmxEtT0p2icekCS2Ke3
nJmghmwHq2Erbm+Da0RYtrfnhWEtAA2U6hhNXAEmilgpQGGyFLU8YvJNswnalvG1
tZ3gcUPX
-----END CERTIFICATE-----
