Certificate:
    Data:
        Version: 3 (0x2)
        Serial Number:
            2c:7e:f2:b5:22:7c:49:b6:1f:80:91:93:ee:a0:ad:2f:52:df:bb:65
        Signature Algorithm: sha1WithRSAEncryption
        Issuer: C=AU, O=Dodgy Brothers, CN=Dodgy CA
        Validity
            Not Before: Mar 25 14:33:14 2025 GMT
            Not After : Mar 25 14:33:14 2026 GMT
        Subject: C=AU, O=Dodgy Brothers, CN=Brother 1, CN=both_generalizedtime
        Subject Public Key Info:
            Public Key Algorithm: rsaEncryption
                Public-Key: (2048 bit)
                Modulus:
                    00:be:95:86:fa:71:4c:6a:ea:51:98:50:4b:99:a1:
                    2c:66:15:f3:60:f3:e1:ff:69:fb:ce:48:01:1d:fe:
                    e1:2c:38:b0:e3:bd:8f:4b:48:a7:7e:3a:c6:73:e3:
                    ab:bf:e1:da:6e:96:f5:fe:c3:e4:b4:a8:ad:bc:56:
                    34:d4:96:25:74:27:c3:10:db:35:10:25:1c:8e:4b:
                    81:9b:fb:42:04:7c:6f:3d:e2:38:6c:0e:e4:2e:8e:
                    2a:18:6d:30:cd:67:2a:23:6b:37:cf:05:9f:cc:b7:
                    59:58:7f:ba:c4:0a:3f:8c:a4:ad:cb:98:9c:c0:f2:
                    8f:69:67:0f:c1:4e:33:cf:fc:85:5e:bb:5e:cf:93:
                    b0:cf:d9:f4:52:79:87:b1:f8:4d:15:68:65:d5:b7:
                    19:08:63:7f:5e:b1:34:ad:05:8f:5a:f0:e4:e1:8f:
                    25:f2:5c:5c:61:95:b0:56:2d:31:2b:08:65:79:e5:
                    b1:3b:9d:3e:b9:52:4b:ac:5d:c4:58:66:85:8d:81:
                    b3:04:28:f4:3f:2f:ac:92:01:62:d5:fd:8e:0b:da:
                    02:0c:7a:c7:6e:09:1c:ac:1c:b2:4c:d7:54:b8:26:
                    33:b2:5f:14:f3:b1:f9:3d:62:4d:40:99:6b:b6:e7:
                    89:58:97:d6:d4:4d:ea:4b:68:52:f3:3c:a8:b1:35:
                    88:db
                Exponent: 65537 (0x10001)
        X509v3 extensions:
            X509v3 Subject Key Identifier: 
                A1:DF:33:C3:CF:3E:53:41:A7:68:44:CC:AA:19:E1:84:C9:0D:BC:C6
            X509v3 Authority Key Identifier: 
                keyid:B4:11:33:F1:D7:E2:5E:F7:53:9E:20:22:10:4F:86:06:BF:1F:C9:5E
                DirName:/C=AU/O=Dodgy Brothers/CN=Dodgy CA
                serial:54:D6:A7:3A:34:4E:FC:1C:8D:DD:9D:49:EA:D1:43:49:32:07:25:F9
            X509v3 Basic Constraints: critical
                CA:TRUE, pathlen:1
            X509v3 Key Usage: 
                Certificate Sign, CRL Sign
            X509v3 Issuer Alternative Name: 
                <EMPTY>

    Signature Algorithm: sha1WithRSAEncryption
    Signature Value:
        6e:b1:fb:d6:7d:40:c5:d6:fa:8c:a8:cd:1c:16:31:af:eb:d1:
        a7:a6:e7:c9:25:54:96:1e:dd:23:ac:2a:cb:57:68:d1:ce:1f:
        a0:50:b0:29:0f:7b:95:5b:f5:5a:bb:ea:03:27:70:e3:42:e0:
        d0:5e:ad:be:90:d2:ab:ac:c4:e4:da:7b:45:0c:09:eb:f3:b1:
        8d:91:43:8b:ba:b7:e9:9e:3a:75:bf:91:ad:33:0f:dd:af:5c:
        34:4d:be:33:63:9b:15:2f:63:3b:13:7e:66:f8:80:ee:83:db:
        24:0a:53:60:f2:88:19:31:e2:e3:17:9f:96:a2:39:76:ca:24:
        33:75:9d:ad:c6:46:7a:3f:25:df:a6:f4:34:a0:17:31:c5:5e:
        5a:90:6e:4b:b5:cb:47:62:7e:44:c8:57:45:71:ad:e3:d0:cc:
        13:c5:92:89:45:14:09:6b:f6:77:fa:7e:02:59:dd:ca:36:f6:
        75:c7:e5:90:dd:f8:54:a0:94:68:97:64:50:7d:59:0c:55:ea:
        a4:f0:b9:cb:1f:07:45:f6:c9:d6:51:78:3d:22:8e:d3:41:f8:
        91:88:f6:36:02:bb:43:7b:ed:09:9e:d5:ec:f1:2f:a2:78:a2:
        41:e5:9f:94:5e:d1:e5:c6:4e:72:58:77:d9:a8:41:6a:f7:f3:
        2d:27:c9:26
-----BEGIN CERTIFICATE-----
MIID5TCCAs2gAwIBAgIULH7ytSJ8SbYfgJGT7qCtL1Lfu2UwDQYJKoZIhvcNAQEF
BQAwOTELMAkGA1UEBhMCQVUxFzAVBgNVBAoMDkRvZGd5IEJyb3RoZXJzMREwDwYD
VQQDDAhEb2RneSBDQTAeFw0yNTAzMjUxNDMzMTRaFw0yNjAzMjUxNDMzMTRaMFkx
CzAJBgNVBAYTAkFVMRcwFQYDVQQKDA5Eb2RneSBCcm90aGVyczESMBAGA1UEAwwJ
QnJvdGhlciAxMR0wGwYDVQQDDBRib3RoX2dlbmVyYWxpemVkdGltZTCCASIwDQYJ
KoZIhvcNAQEBBQADggEPADCCAQoCggEBAL6VhvpxTGrqUZhQS5mhLGYV82Dz4f9p
+85IAR3+4Sw4sOO9j0tIp346xnPjq7/h2m6W9f7D5LSorbxWNNSWJXQnwxDbNRAl
HI5LgZv7QgR8bz3iOGwO5C6OKhhtMM1nKiNrN88Fn8y3WVh/usQKP4ykrcuYnMDy
j2lnD8FOM8/8hV67Xs+TsM/Z9FJ5h7H4TRVoZdW3GQhjf16xNK0Fj1rw5OGPJfJc
XGGVsFYtMSsIZXnlsTudPrlSS6xdxFhmhY2BswQo9D8vrJIBYtX9jgvaAgx6x24J
HKwcskzXVLgmM7JfFPOx+T1iTUCZa7bniViX1tRN6ktoUvM8qLE1iNsCAwEAAaOB
xDCBwTAdBgNVHQ4EFgQUod8zw88+U0GnaETMqhnhhMkNvMYwdAYDVR0jBG0wa4AU
tBEz8dfiXvdTniAiEE+GBr8fyV6hPaQ7MDkxCzAJBgNVBAYTAkFVMRcwFQYDVQQK
DA5Eb2RneSBCcm90aGVyczERMA8GA1UEAwwIRG9kZ3kgQ0GCFFTWpzo0Tvwcjd2d
SerRQ0kyByX5MBIGA1UdEwEB/wQIMAYBAf8CAQEwCwYDVR0PBAQDAgEGMAkGA1Ud
EgQCMAAwDQYJKoZIhvcNAQEFBQADggEBAG6x+9Z9QMXW+oyozRwWMa/r0aem58kl
VJYe3SOsKstXaNHOH6BQsCkPe5Vb9Vq76gMncONC4NBerb6Q0qusxOTae0UMCevz
sY2RQ4u6t+meOnW/ka0zD92vXDRNvjNjmxUvYzsTfmb4gO6D2yQKU2DyiBkx4uMX
n5aiOXbKJDN1na3GRno/Jd+m9DSgFzHFXlqQbku1y0difkTIV0VxrePQzBPFkolF
FAlr9nf6fgJZ3co29nXH5ZDd+FSglGiXZFB9WQxV6qTwucsfB0X2ydZReD0ijtNB
+JGI9jYCu0N77Qme1ezxL6J4okHln5Re0eXGTnJYd9moQWr38y0nySY=
-----END CERTIFICATE-----
