Certificate:
    Data:
        Version: 3 (0x2)
        Serial Number:
            2c:7e:f2:b5:22:7c:49:b6:1f:80:91:93:ee:a0:ad:2f:52:df:bb:5d
        Signature Algorithm: sha1WithRSAEncryption
        Issuer: C=AU, O=Dodgy Brothers, CN=Dodgy CA
        Validity
            Not Before: Mar 25 14:33:12 2025 GMT
            Not After : Mar 25 14:33:12 2026 GMT
        Subject: C=AU, O=Dodgy Brothers, CN=Brother 1, CN=notimes
        Subject Public Key Info:
            Public Key Algorithm: rsaEncryption
                Public-Key: (2048 bit)
                Modulus:
                    00:be:95:86:fa:71:4c:6a:ea:51:98:50:4b:99:a1:
                    2c:66:15:f3:60:f3:e1:ff:69:fb:ce:48:01:1d:fe:
                    e1:2c:38:b0:e3:bd:8f:4b:48:a7:7e:3a:c6:73:e3:
                    ab:bf:e1:da:6e:96:f5:fe:c3:e4:b4:a8:ad:bc:56:
                    34:d4:96:25:74:27:c3:10:db:35:10:25:1c:8e:4b:
                    81:9b:fb:42:04:7c:6f:3d:e2:38:6c:0e:e4:2e:8e:
                    2a:18:6d:30:cd:67:2a:23:6b:37:cf:05:9f:cc:b7:
                    59:58:7f:ba:c4:0a:3f:8c:a4:ad:cb:98:9c:c0:f2:
                    8f:69:67:0f:c1:4e:33:cf:fc:85:5e:bb:5e:cf:93:
                    b0:cf:d9:f4:52:79:87:b1:f8:4d:15:68:65:d5:b7:
                    19:08:63:7f:5e:b1:34:ad:05:8f:5a:f0:e4:e1:8f:
                    25:f2:5c:5c:61:95:b0:56:2d:31:2b:08:65:79:e5:
                    b1:3b:9d:3e:b9:52:4b:ac:5d:c4:58:66:85:8d:81:
                    b3:04:28:f4:3f:2f:ac:92:01:62:d5:fd:8e:0b:da:
                    02:0c:7a:c7:6e:09:1c:ac:1c:b2:4c:d7:54:b8:26:
                    33:b2:5f:14:f3:b1:f9:3d:62:4d:40:99:6b:b6:e7:
                    89:58:97:d6:d4:4d:ea:4b:68:52:f3:3c:a8:b1:35:
                    88:db
                Exponent: 65537 (0x10001)
        X509v3 extensions:
            X509v3 Subject Key Identifier: 
                A1:DF:33:C3:CF:3E:53:41:A7:68:44:CC:AA:19:E1:84:C9:0D:BC:C6
            X509v3 Authority Key Identifier: 
                keyid:B4:11:33:F1:D7:E2:5E:F7:53:9E:20:22:10:4F:86:06:BF:1F:C9:5E
                DirName:/C=AU/O=Dodgy Brothers/CN=Dodgy CA
                serial:54:D6:A7:3A:34:4E:FC:1C:8D:DD:9D:49:EA:D1:43:49:32:07:25:F9
            X509v3 Basic Constraints: critical
                CA:TRUE, pathlen:1
            X509v3 Key Usage: 
                Certificate Sign, CRL Sign
            X509v3 Issuer Alternative Name: 
                <EMPTY>

    Signature Algorithm: sha1WithRSAEncryption
    Signature Value:
        61:0e:8a:9e:45:3f:ed:cd:b0:76:8b:3d:02:88:25:37:22:1f:
        9e:ae:ec:f3:85:41:1a:49:5c:09:c7:7e:0b:fb:9e:c3:85:6c:
        64:ff:ed:29:ef:d9:4d:d0:f3:17:2d:8a:70:3f:89:04:31:86:
        d6:ef:7a:17:0c:32:b7:24:13:40:d4:b2:cc:3f:b0:56:78:61:
        2e:db:0d:7f:c1:75:58:f8:5d:cf:45:1d:2e:86:9a:54:3f:bc:
        74:e1:86:fe:79:24:45:e8:c3:6f:88:b0:7c:9d:e2:15:f9:55:
        74:f6:70:8b:bb:49:c7:9c:27:c1:69:39:85:40:25:31:c0:08:
        f6:7a:88:6e:c6:8a:4d:6e:a4:ff:ae:45:ec:e4:81:2e:62:70:
        50:ff:45:7d:7a:14:ce:41:4e:81:f7:8b:c5:8e:81:66:81:61:
        0f:f7:94:57:e7:63:ed:ce:86:d3:e2:46:94:6f:ac:be:af:61:
        33:81:e1:80:26:4b:7e:32:53:8b:75:30:6a:8c:ff:89:f7:6a:
        5b:c7:01:83:ec:74:7e:77:4b:de:2c:2d:70:b5:89:88:5e:aa:
        59:cc:19:ab:fc:e7:fa:8d:ce:d1:02:50:5b:4c:62:90:55:65:
        a2:74:a0:8f:0f:b4:a8:8b:56:0e:6d:a1:7b:cf:b7:84:0e:51:
        dd:c5:d8:8f
-----BEGIN CERTIFICATE-----
MIID2DCCAsCgAwIBAgIULH7ytSJ8SbYfgJGT7qCtL1Lfu10wDQYJKoZIhvcNAQEF
BQAwOTELMAkGA1UEBhMCQVUxFzAVBgNVBAoMDkRvZGd5IEJyb3RoZXJzMREwDwYD
VQQDDAhEb2RneSBDQTAeFw0yNTAzMjUxNDMzMTJaFw0yNjAzMjUxNDMzMTJaMEwx
CzAJBgNVBAYTAkFVMRcwFQYDVQQKDA5Eb2RneSBCcm90aGVyczESMBAGA1UEAwwJ
QnJvdGhlciAxMRAwDgYDVQQDDAdub3RpbWVzMIIBIjANBgkqhkiG9w0BAQEFAAOC
AQ8AMIIBCgKCAQEAvpWG+nFMaupRmFBLmaEsZhXzYPPh/2n7zkgBHf7hLDiw472P
S0infjrGc+Orv+Habpb1/sPktKitvFY01JYldCfDENs1ECUcjkuBm/tCBHxvPeI4
bA7kLo4qGG0wzWcqI2s3zwWfzLdZWH+6xAo/jKSty5icwPKPaWcPwU4zz/yFXrte
z5Owz9n0UnmHsfhNFWhl1bcZCGN/XrE0rQWPWvDk4Y8l8lxcYZWwVi0xKwhleeWx
O50+uVJLrF3EWGaFjYGzBCj0Py+skgFi1f2OC9oCDHrHbgkcrByyTNdUuCYzsl8U
87H5PWJNQJlrtueJWJfW1E3qS2hS8zyosTWI2wIDAQABo4HEMIHBMB0GA1UdDgQW
BBSh3zPDzz5TQadoRMyqGeGEyQ28xjB0BgNVHSMEbTBrgBS0ETPx1+Je91OeICIQ
T4YGvx/JXqE9pDswOTELMAkGA1UEBhMCQVUxFzAVBgNVBAoMDkRvZGd5IEJyb3Ro
ZXJzMREwDwYDVQQDDAhEb2RneSBDQYIUVNanOjRO/ByN3Z1J6tFDSTIHJfkwEgYD
VR0TAQH/BAgwBgEB/wIBATALBgNVHQ8EBAMCAQYwCQYDVR0SBAIwADANBgkqhkiG
9w0BAQUFAAOCAQEAYQ6KnkU/7c2wdos9AoglNyIfnq7s84VBGklcCcd+C/uew4Vs
ZP/tKe/ZTdDzFy2KcD+JBDGG1u96FwwytyQTQNSyzD+wVnhhLtsNf8F1WPhdz0Ud
LoaaVD+8dOGG/nkkRejDb4iwfJ3iFflVdPZwi7tJx5wnwWk5hUAlMcAI9nqIbsaK
TW6k/65F7OSBLmJwUP9FfXoUzkFOgfeLxY6BZoFhD/eUV+dj7c6G0+JGlG+svq9h
M4HhgCZLfjJTi3Uwaoz/ifdqW8cBg+x0fndL3iwtcLWJiF6qWcwZq/zn+o3O0QJQ
W0xikFVlonSgjw+0qItWDm2he8+3hA5R3cXYjw==
-----END CERTIFICATE-----
