Certificate:
    Data:
        Version: 3 (0x2)
        Serial Number:
            2c:7e:f2:b5:22:7c:49:b6:1f:80:91:93:ee:a0:ad:2f:52:df:bb:5f
        Signature Algorithm: sha1WithRSAEncryption
        Issuer: C=AU, O=Dodgy Brothers, CN=Dodgy CA
        Validity
            Not Before: Mar 25 14:33:12 2025 GMT
            Not After : Mar 25 14:33:12 2026 GMT
        Subject: C=AU, O=Dodgy Brothers, CN=Brother 1, CN=lastupdate_utctime
        Subject Public Key Info:
            Public Key Algorithm: rsaEncryption
                Public-Key: (2048 bit)
                Modulus:
                    00:be:95:86:fa:71:4c:6a:ea:51:98:50:4b:99:a1:
                    2c:66:15:f3:60:f3:e1:ff:69:fb:ce:48:01:1d:fe:
                    e1:2c:38:b0:e3:bd:8f:4b:48:a7:7e:3a:c6:73:e3:
                    ab:bf:e1:da:6e:96:f5:fe:c3:e4:b4:a8:ad:bc:56:
                    34:d4:96:25:74:27:c3:10:db:35:10:25:1c:8e:4b:
                    81:9b:fb:42:04:7c:6f:3d:e2:38:6c:0e:e4:2e:8e:
                    2a:18:6d:30:cd:67:2a:23:6b:37:cf:05:9f:cc:b7:
                    59:58:7f:ba:c4:0a:3f:8c:a4:ad:cb:98:9c:c0:f2:
                    8f:69:67:0f:c1:4e:33:cf:fc:85:5e:bb:5e:cf:93:
                    b0:cf:d9:f4:52:79:87:b1:f8:4d:15:68:65:d5:b7:
                    19:08:63:7f:5e:b1:34:ad:05:8f:5a:f0:e4:e1:8f:
                    25:f2:5c:5c:61:95:b0:56:2d:31:2b:08:65:79:e5:
                    b1:3b:9d:3e:b9:52:4b:ac:5d:c4:58:66:85:8d:81:
                    b3:04:28:f4:3f:2f:ac:92:01:62:d5:fd:8e:0b:da:
                    02:0c:7a:c7:6e:09:1c:ac:1c:b2:4c:d7:54:b8:26:
                    33:b2:5f:14:f3:b1:f9:3d:62:4d:40:99:6b:b6:e7:
                    89:58:97:d6:d4:4d:ea:4b:68:52:f3:3c:a8:b1:35:
                    88:db
                Exponent: 65537 (0x10001)
        X509v3 extensions:
            X509v3 Subject Key Identifier: 
                A1:DF:33:C3:CF:3E:53:41:A7:68:44:CC:AA:19:E1:84:C9:0D:BC:C6
            X509v3 Authority Key Identifier: 
                keyid:B4:11:33:F1:D7:E2:5E:F7:53:9E:20:22:10:4F:86:06:BF:1F:C9:5E
                DirName:/C=AU/O=Dodgy Brothers/CN=Dodgy CA
                serial:54:D6:A7:3A:34:4E:FC:1C:8D:DD:9D:49:EA:D1:43:49:32:07:25:F9
            X509v3 Basic Constraints: critical
                CA:TRUE, pathlen:1
            X509v3 Key Usage: 
                Certificate Sign, CRL Sign
            X509v3 Issuer Alternative Name: 
                <EMPTY>

    Signature Algorithm: sha1WithRSAEncryption
    Signature Value:
        4e:0e:06:c9:87:03:8a:b9:2e:a4:26:1a:0d:00:3f:5d:8f:e1:
        ad:05:f3:fa:11:aa:ae:f6:ba:c6:3f:56:52:18:7f:53:bc:08:
        a1:b6:42:3d:01:b4:e1:22:79:c2:99:33:07:67:a1:fc:4d:5b:
        7e:1d:5d:9a:cb:5e:ae:63:49:70:2d:fa:58:09:d9:0f:4b:e2:
        cf:d0:46:74:c3:4d:f5:64:06:c4:a4:ea:b8:3f:cc:0b:b0:e5:
        03:50:7b:e0:bd:28:1a:ce:c5:f2:34:53:e1:c9:ba:58:03:48:
        56:98:76:74:c9:f7:e8:21:b3:cc:d8:eb:13:22:7f:f0:72:41:
        a1:4a:34:7c:a7:b2:78:2f:c0:c7:f5:a5:0f:ef:c1:dc:73:8a:
        8a:8f:d0:54:4c:1e:a8:56:c2:7c:75:62:bb:5c:88:c7:27:2f:
        df:20:26:c7:2f:d0:7c:20:3c:8e:8c:87:c4:de:a7:85:c8:a4:
        15:eb:4a:34:2d:1f:61:86:a1:0a:69:92:e7:37:36:95:ea:a7:
        c4:f9:cc:1d:b6:1a:a6:61:c4:6f:7d:e2:16:1a:72:18:3c:ea:
        eb:c6:61:77:3f:c7:92:2d:fb:c4:a6:4f:b1:af:7d:27:0b:54:
        cd:34:66:c1:15:09:57:ef:63:57:1e:c6:ab:84:e7:97:40:7b:
        32:f2:42:c4
-----BEGIN CERTIFICATE-----
MIID4zCCAsugAwIBAgIULH7ytSJ8SbYfgJGT7qCtL1Lfu18wDQYJKoZIhvcNAQEF
BQAwOTELMAkGA1UEBhMCQVUxFzAVBgNVBAoMDkRvZGd5IEJyb3RoZXJzMREwDwYD
VQQDDAhEb2RneSBDQTAeFw0yNTAzMjUxNDMzMTJaFw0yNjAzMjUxNDMzMTJaMFcx
CzAJBgNVBAYTAkFVMRcwFQYDVQQKDA5Eb2RneSBCcm90aGVyczESMBAGA1UEAwwJ
QnJvdGhlciAxMRswGQYDVQQDDBJsYXN0dXBkYXRlX3V0Y3RpbWUwggEiMA0GCSqG
SIb3DQEBAQUAA4IBDwAwggEKAoIBAQC+lYb6cUxq6lGYUEuZoSxmFfNg8+H/afvO
SAEd/uEsOLDjvY9LSKd+OsZz46u/4dpulvX+w+S0qK28VjTUliV0J8MQ2zUQJRyO
S4Gb+0IEfG894jhsDuQujioYbTDNZyojazfPBZ/Mt1lYf7rECj+MpK3LmJzA8o9p
Zw/BTjPP/IVeu17Pk7DP2fRSeYex+E0VaGXVtxkIY39esTStBY9a8OThjyXyXFxh
lbBWLTErCGV55bE7nT65UkusXcRYZoWNgbMEKPQ/L6ySAWLV/Y4L2gIMesduCRys
HLJM11S4JjOyXxTzsfk9Yk1AmWu254lYl9bUTepLaFLzPKixNYjbAgMBAAGjgcQw
gcEwHQYDVR0OBBYEFKHfM8PPPlNBp2hEzKoZ4YTJDbzGMHQGA1UdIwRtMGuAFLQR
M/HX4l73U54gIhBPhga/H8leoT2kOzA5MQswCQYDVQQGEwJBVTEXMBUGA1UECgwO
RG9kZ3kgQnJvdGhlcnMxETAPBgNVBAMMCERvZGd5IENBghRU1qc6NE78HI3dnUnq
0UNJMgcl+TASBgNVHRMBAf8ECDAGAQH/AgEBMAsGA1UdDwQEAwIBBjAJBgNVHRIE
AjAAMA0GCSqGSIb3DQEBBQUAA4IBAQBODgbJhwOKuS6kJhoNAD9dj+GtBfP6Eaqu
9rrGP1ZSGH9TvAihtkI9AbThInnCmTMHZ6H8TVt+HV2ay16uY0lwLfpYCdkPS+LP
0EZ0w031ZAbEpOq4P8wLsOUDUHvgvSgazsXyNFPhybpYA0hWmHZ0yffoIbPM2OsT
In/wckGhSjR8p7J4L8DH9aUP78Hcc4qKj9BUTB6oVsJ8dWK7XIjHJy/fICbHL9B8
IDyOjIfE3qeFyKQV60o0LR9hhqEKaZLnNzaV6qfE+cwdthqmYcRvfeIWGnIYPOrr
xmF3P8eSLfvEpk+xr30nC1TNNGbBFQlX72NXHsarhOeXQHsy8kLE
-----END CERTIFICATE-----
