Certificate:
    Data:
        Version: 3 (0x2)
        Serial Number:
            2c:7e:f2:b5:22:7c:49:b6:1f:80:91:93:ee:a0:ad:2f:52:df:bb:5e
        Signature Algorithm: sha1WithRSAEncryption
        Issuer: C=AU, O=Dodgy Brothers, CN=Dodgy CA
        Validity
            Not Before: Mar 25 14:33:12 2025 GMT
            Not After : Mar 25 14:33:12 2026 GMT
        Subject: C=AU, O=Dodgy Brothers, CN=Brother 1, CN=lastupdate_invalid
        Subject Public Key Info:
            Public Key Algorithm: rsaEncryption
                Public-Key: (2048 bit)
                Modulus:
                    00:be:95:86:fa:71:4c:6a:ea:51:98:50:4b:99:a1:
                    2c:66:15:f3:60:f3:e1:ff:69:fb:ce:48:01:1d:fe:
                    e1:2c:38:b0:e3:bd:8f:4b:48:a7:7e:3a:c6:73:e3:
                    ab:bf:e1:da:6e:96:f5:fe:c3:e4:b4:a8:ad:bc:56:
                    34:d4:96:25:74:27:c3:10:db:35:10:25:1c:8e:4b:
                    81:9b:fb:42:04:7c:6f:3d:e2:38:6c:0e:e4:2e:8e:
                    2a:18:6d:30:cd:67:2a:23:6b:37:cf:05:9f:cc:b7:
                    59:58:7f:ba:c4:0a:3f:8c:a4:ad:cb:98:9c:c0:f2:
                    8f:69:67:0f:c1:4e:33:cf:fc:85:5e:bb:5e:cf:93:
                    b0:cf:d9:f4:52:79:87:b1:f8:4d:15:68:65:d5:b7:
                    19:08:63:7f:5e:b1:34:ad:05:8f:5a:f0:e4:e1:8f:
                    25:f2:5c:5c:61:95:b0:56:2d:31:2b:08:65:79:e5:
                    b1:3b:9d:3e:b9:52:4b:ac:5d:c4:58:66:85:8d:81:
                    b3:04:28:f4:3f:2f:ac:92:01:62:d5:fd:8e:0b:da:
                    02:0c:7a:c7:6e:09:1c:ac:1c:b2:4c:d7:54:b8:26:
                    33:b2:5f:14:f3:b1:f9:3d:62:4d:40:99:6b:b6:e7:
                    89:58:97:d6:d4:4d:ea:4b:68:52:f3:3c:a8:b1:35:
                    88:db
                Exponent: 65537 (0x10001)
        X509v3 extensions:
            X509v3 Subject Key Identifier: 
                A1:DF:33:C3:CF:3E:53:41:A7:68:44:CC:AA:19:E1:84:C9:0D:BC:C6
            X509v3 Authority Key Identifier: 
                keyid:B4:11:33:F1:D7:E2:5E:F7:53:9E:20:22:10:4F:86:06:BF:1F:C9:5E
                DirName:/C=AU/O=Dodgy Brothers/CN=Dodgy CA
                serial:54:D6:A7:3A:34:4E:FC:1C:8D:DD:9D:49:EA:D1:43:49:32:07:25:F9
            X509v3 Basic Constraints: critical
                CA:TRUE, pathlen:1
            X509v3 Key Usage: 
                Certificate Sign, CRL Sign
            X509v3 Issuer Alternative Name: 
                <EMPTY>

    Signature Algorithm: sha1WithRSAEncryption
    Signature Value:
        85:21:39:85:89:3e:dd:65:e2:65:45:50:2c:5e:58:27:63:a3:
        07:3f:c2:34:1f:90:b4:0e:35:73:e2:b9:4c:7c:15:03:53:90:
        a5:48:9d:4d:9f:6d:a0:df:c8:74:f4:27:55:92:db:43:6b:a9:
        63:4b:f5:4a:8b:c7:9b:6b:58:d0:99:0b:a1:a7:41:1c:35:2a:
        56:b1:69:22:80:ff:ef:0b:88:33:24:47:ff:51:a7:d7:35:43:
        bb:a6:56:ce:2a:a4:3c:31:4d:ce:81:7d:0d:28:3d:b3:b8:f0:
        87:13:6c:6d:f4:36:8c:cf:09:43:8c:6c:e5:38:0f:72:c9:0f:
        b7:f3:f8:7d:31:2a:2a:a2:de:7b:ed:07:03:92:36:41:df:98:
        1b:80:c6:7d:7b:bb:c6:c2:bc:bc:c7:38:27:8a:db:45:54:cc:
        3a:0d:99:e3:d8:d7:b3:65:4f:1f:da:97:bd:98:36:a6:d0:5b:
        9b:b8:99:d1:93:70:f9:e3:74:da:1c:ba:f3:6b:ae:e4:98:0f:
        f2:f4:aa:87:63:dc:e4:3f:aa:dd:51:c8:7f:8e:e2:72:23:de:
        55:27:36:72:6b:d0:b4:85:14:cb:67:2f:de:ec:7f:80:6f:ed:
        a5:ab:43:54:05:f4:62:b6:6a:ab:76:a8:eb:f6:73:e1:f9:76:
        ca:be:fc:8e
-----BEGIN CERTIFICATE-----
MIID4zCCAsugAwIBAgIULH7ytSJ8SbYfgJGT7qCtL1Lfu14wDQYJKoZIhvcNAQEF
BQAwOTELMAkGA1UEBhMCQVUxFzAVBgNVBAoMDkRvZGd5IEJyb3RoZXJzMREwDwYD
VQQDDAhEb2RneSBDQTAeFw0yNTAzMjUxNDMzMTJaFw0yNjAzMjUxNDMzMTJaMFcx
CzAJBgNVBAYTAkFVMRcwFQYDVQQKDA5Eb2RneSBCcm90aGVyczESMBAGA1UEAwwJ
QnJvdGhlciAxMRswGQYDVQQDDBJsYXN0dXBkYXRlX2ludmFsaWQwggEiMA0GCSqG
SIb3DQEBAQUAA4IBDwAwggEKAoIBAQC+lYb6cUxq6lGYUEuZoSxmFfNg8+H/afvO
SAEd/uEsOLDjvY9LSKd+OsZz46u/4dpulvX+w+S0qK28VjTUliV0J8MQ2zUQJRyO
S4Gb+0IEfG894jhsDuQujioYbTDNZyojazfPBZ/Mt1lYf7rECj+MpK3LmJzA8o9p
Zw/BTjPP/IVeu17Pk7DP2fRSeYex+E0VaGXVtxkIY39esTStBY9a8OThjyXyXFxh
lbBWLTErCGV55bE7nT65UkusXcRYZoWNgbMEKPQ/L6ySAWLV/Y4L2gIMesduCRys
HLJM11S4JjOyXxTzsfk9Yk1AmWu254lYl9bUTepLaFLzPKixNYjbAgMBAAGjgcQw
gcEwHQYDVR0OBBYEFKHfM8PPPlNBp2hEzKoZ4YTJDbzGMHQGA1UdIwRtMGuAFLQR
M/HX4l73U54gIhBPhga/H8leoT2kOzA5MQswCQYDVQQGEwJBVTEXMBUGA1UECgwO
RG9kZ3kgQnJvdGhlcnMxETAPBgNVBAMMCERvZGd5IENBghRU1qc6NE78HI3dnUnq
0UNJMgcl+TASBgNVHRMBAf8ECDAGAQH/AgEBMAsGA1UdDwQEAwIBBjAJBgNVHRIE
AjAAMA0GCSqGSIb3DQEBBQUAA4IBAQCFITmFiT7dZeJlRVAsXlgnY6MHP8I0H5C0
DjVz4rlMfBUDU5ClSJ1Nn22g38h09CdVkttDa6ljS/VKi8eba1jQmQuhp0EcNSpW
sWkigP/vC4gzJEf/UafXNUO7plbOKqQ8MU3OgX0NKD2zuPCHE2xt9DaMzwlDjGzl
OA9yyQ+38/h9MSoqot577QcDkjZB35gbgMZ9e7vGwry8xzgnittFVMw6DZnj2Nez
ZU8f2pe9mDam0FubuJnRk3D543TaHLrza67kmA/y9KqHY9zkP6rdUch/juJyI95V
JzZya9C0hRTLZy/e7H+Ab+2lq0NUBfRitmqrdqjr9nPh+XbKvvyO
-----END CERTIFICATE-----
