Certificate:
    Data:
        Version: 3 (0x2)
        Serial Number:
            54:d6:a7:3a:34:4e:fc:1c:8d:dd:9d:49:ea:d1:43:49:32:07:25:f9
        Signature Algorithm: sha1WithRSAEncryption
        Issuer: C=AU, O=Dodgy Brothers, CN=Dodgy CA
        Validity
            Not Before: Mar 25 14:33:11 2025 GMT
            Not After : Mar 24 14:33:11 2028 GMT
        Subject: C=AU, O=Dodgy Brothers, CN=Dodgy CA
        Subject Public Key Info:
            Public Key Algorithm: rsaEncryption
                Public-Key: (2048 bit)
                Modulus:
                    00:96:9d:a4:3d:00:4b:1c:5f:c6:cb:dd:8f:d2:31:
                    b2:88:15:cc:c4:86:2c:5c:e2:69:8b:84:f4:a7:a3:
                    53:df:91:e3:bf:51:89:fb:f0:7c:10:0d:3b:ad:ac:
                    35:62:75:f5:7f:ff:f4:6e:54:8f:05:a6:92:23:b3:
                    9f:59:39:d0:39:18:b0:10:40:de:62:73:8a:4e:b0:
                    8e:df:dc:e7:c9:41:22:54:84:80:08:29:bc:35:3c:
                    86:df:30:de:dd:b4:24:ff:7e:62:a5:c0:7a:e8:2a:
                    16:3f:d6:97:da:c5:42:db:2f:69:64:91:cb:08:d7:
                    56:5a:79:7f:1b:84:41:e9:4d:9d:77:09:10:a8:6c:
                    29:33:44:c6:c0:54:65:e6:e8:e3:f2:75:05:6a:64:
                    95:6c:c0:f4:fd:25:61:6e:48:36:f0:c0:03:07:05:
                    d6:7c:e5:11:fd:18:e8:4a:2d:d3:72:0c:37:28:36:
                    31:31:38:85:e8:71:8d:d8:02:49:c8:bc:19:89:c5:
                    8a:b1:3f:a2:35:ea:aa:90:1c:64:68:7b:af:67:6a:
                    5a:06:54:0f:50:e1:f9:b4:f6:be:3a:d4:ce:3f:1e:
                    4c:7d:c6:77:32:3e:a2:58:ed:db:dd:74:d8:92:14:
                    6a:a8:f7:cb:34:58:91:a8:7c:14:b1:7d:08:b3:4d:
                    b1:47
                Exponent: 65537 (0x10001)
        X509v3 extensions:
            X509v3 Subject Key Identifier: 
                B4:11:33:F1:D7:E2:5E:F7:53:9E:20:22:10:4F:86:06:BF:1F:C9:5E
            X509v3 Authority Key Identifier: 
                keyid:B4:11:33:F1:D7:E2:5E:F7:53:9E:20:22:10:4F:86:06:BF:1F:C9:5E
                DirName:/C=AU/O=Dodgy Brothers/CN=Dodgy CA
                serial:54:D6:A7:3A:34:4E:FC:1C:8D:DD:9D:49:EA:D1:43:49:32:07:25:F9
            X509v3 Basic Constraints: critical
                CA:TRUE, pathlen:1
            X509v3 Key Usage: 
                Certificate Sign, CRL Sign
            X509v3 Issuer Alternative Name: 
                <EMPTY>

    Signature Algorithm: sha1WithRSAEncryption
    Signature Value:
        1f:64:89:57:d4:3f:b4:15:42:2d:c2:e6:07:6f:f5:d9:f0:25:
        5a:8e:bd:ac:01:c2:7b:6c:33:72:72:14:70:20:c3:5f:64:69:
        c5:d6:8e:75:13:a1:c2:dc:27:14:19:f1:6f:25:1f:f8:8a:9f:
        e8:63:ef:03:55:f4:6c:d5:c7:00:7d:08:56:cd:02:c5:74:95:
        98:04:e5:b6:47:d5:49:1d:b7:f2:ad:e2:c5:94:3c:3f:dc:d3:
        c7:1c:f3:8d:3a:69:b4:9d:9d:85:88:62:7e:b7:ab:de:cc:4f:
        fb:8a:5f:f5:f8:ac:00:67:ed:1f:80:39:98:34:8c:47:ae:77:
        25:b2:f4:d1:de:69:d9:72:7e:8c:cd:a8:57:cd:84:91:1b:4a:
        df:22:e4:4d:4e:a1:87:1d:d8:b9:1d:b8:1f:44:f0:0c:f6:ac:
        c2:fc:d1:0f:03:5f:07:f9:89:3f:14:bb:a4:16:e1:78:48:17:
        48:1c:ca:ba:7f:c2:7a:97:1a:2b:b7:fe:81:f1:94:6a:9c:64:
        a6:72:24:52:24:86:ea:11:db:62:97:40:2f:6c:d6:89:7e:84:
        df:cb:b4:50:60:1c:0f:90:59:88:9b:e5:6e:e2:fe:83:20:50:
        12:30:2f:08:87:ad:46:13:b8:85:ef:7a:33:ad:e1:8b:b5:c5:
        de:8d:b0:f2
-----BEGIN CERTIFICATE-----
MIIDxTCCAq2gAwIBAgIUVNanOjRO/ByN3Z1J6tFDSTIHJfkwDQYJKoZIhvcNAQEF
BQAwOTELMAkGA1UEBhMCQVUxFzAVBgNVBAoMDkRvZGd5IEJyb3RoZXJzMREwDwYD
VQQDDAhEb2RneSBDQTAeFw0yNTAzMjUxNDMzMTFaFw0yODAzMjQxNDMzMTFaMDkx
CzAJBgNVBAYTAkFVMRcwFQYDVQQKDA5Eb2RneSBCcm90aGVyczERMA8GA1UEAwwI
RG9kZ3kgQ0EwggEiMA0GCSqGSIb3DQEBAQUAA4IBDwAwggEKAoIBAQCWnaQ9AEsc
X8bL3Y/SMbKIFczEhixc4mmLhPSno1PfkeO/UYn78HwQDTutrDVidfV///RuVI8F
ppIjs59ZOdA5GLAQQN5ic4pOsI7f3OfJQSJUhIAIKbw1PIbfMN7dtCT/fmKlwHro
KhY/1pfaxULbL2lkkcsI11ZaeX8bhEHpTZ13CRCobCkzRMbAVGXm6OPydQVqZJVs
wPT9JWFuSDbwwAMHBdZ85RH9GOhKLdNyDDcoNjExOIXocY3YAknIvBmJxYqxP6I1
6qqQHGRoe69naloGVA9Q4fm09r461M4/Hkx9xncyPqJY7dvddNiSFGqo98s0WJGo
fBSxfQizTbFHAgMBAAGjgcQwgcEwHQYDVR0OBBYEFLQRM/HX4l73U54gIhBPhga/
H8leMHQGA1UdIwRtMGuAFLQRM/HX4l73U54gIhBPhga/H8leoT2kOzA5MQswCQYD
VQQGEwJBVTEXMBUGA1UECgwORG9kZ3kgQnJvdGhlcnMxETAPBgNVBAMMCERvZGd5
IENBghRU1qc6NE78HI3dnUnq0UNJMgcl+TASBgNVHRMBAf8ECDAGAQH/AgEBMAsG
A1UdDwQEAwIBBjAJBgNVHRIEAjAAMA0GCSqGSIb3DQEBBQUAA4IBAQAfZIlX1D+0
FUItwuYHb/XZ8CVajr2sAcJ7bDNychRwIMNfZGnF1o51E6HC3CcUGfFvJR/4ip/o
Y+8DVfRs1ccAfQhWzQLFdJWYBOW2R9VJHbfyreLFlDw/3NPHHPONOmm0nZ2FiGJ+
t6vezE/7il/1+KwAZ+0fgDmYNIxHrnclsvTR3mnZcn6MzahXzYSRG0rfIuRNTqGH
Hdi5HbgfRPAM9qzC/NEPA18H+Yk/FLukFuF4SBdIHMq6f8J6lxort/6B8ZRqnGSm
ciRSJIbqEdtil0AvbNaJfoTfy7RQYBwPkFmIm+Vu4v6DIFASMC8Ih61GE7iF73oz
reGLtcXejbDy
-----END CERTIFICATE-----
